0000              1   ;--------------------------------------------------------
0000              2   ; File Created by C51
0000              3   ; Version 1.0.0 #1170 (Feb 16 2022) (MSVC)
0000              4   ; This file was generated Tue Mar 31 17:01:23 2026
0000              5   ;--------------------------------------------------------
                  5   $name tramsitterStopwatch
                  6   $optc51 --model-small
0000              8            R_DSEG    segment data
0000              9            R_CSEG    segment code
0000             10            R_BSEG    segment bit
0000             11            R_XSEG    segment xdata
0000             12            R_PSEG    segment xdata
0000             13            R_ISEG    segment idata
0000             14            R_OSEG    segment data overlay
0000             15            BIT_BANK  segment data overlay
0000             16            R_HOME    segment code
0000             17            R_GSINIT  segment code
0000             18            R_IXSEG   segment xdata
0000             19            R_CONST   segment code
0000             20            R_XINIT   segment code
0000             21            R_DINIT   segment code
0000             22   
0000             23   ;--------------------------------------------------------
0000             24   ; Public variables in this module
0000             25   ;--------------------------------------------------------
0000             26            public _Password4BitToString_PARM_2
0000             27            public _InitPinADC_PARM_2
0000             28            public _main
0000             29            public _Timer2_ISR
0000             30            public _Print4Digit
0000             31            public _program_path
0000             32            public _IR_HalfPeriod_PARM_1
0000             33            public _LCDprint_PARM_3
0000             34            public _auto_mode
0000             35            public _timer_tick
0000             36            public _stopwatch_paused
0000             37            public _is_locked
0000             38            public _password_set
0000             39            public _LCDprint_PARM_2
0000             40            public _current_path
0000             41            public _Print4Digit_PARM_2
0000             42            public _stopwatch_secs
0000             43            public _stopwatch_minutes
0000             44            public _stopwatch_seconds
0000             45            public _program_step
0000             46            public _saved_password
0000             47            public __c51_external_startup
0000             48            public _putchar
0000             49            public _Timer3us
0000             50            public _waitms
0000             51            public _InitPinADC
0000             52            public _InitADC
0000             53            public _ADC_at_Pin
0000             54            public _Get_Battery_Percent
0000             55            public _LCD_pulse
0000             56            public _LCD_byte
0000             57            public _WriteData
0000             58            public _WriteCommand
0000             59            public _LCD_4BIT
0000             60            public _LCDprint
0000             61            public _IR_HalfPeriod
0000             62            public _IR_LoopbackByte
0000             63            public _IR_LoopbackPacket
0000             64            public _Update_Status_Line
0000             65            public _Read_Joystick
0000             66            public _Cmd_Label
0000             67            public _Direction_Label
0000             68            public _Show_Command
0000             69            public _Send_Joystick_Proportional
0000             70            public _Password4BitToString
0000             71            public _Password_Entry_Screen
0000             72            public _Init_Timer2_1Hz
0000             73            public _Update_Stopwatch_Display
0000             74            public _Program_Mode
0000             75   ;--------------------------------------------------------
0000             76   ; Special Function Registers
0000             77   ;--------------------------------------------------------
0000             78   _ACC            DATA 0xe0
0000             79   _ADC0ASAH       DATA 0xb6
0000             80   _ADC0ASAL       DATA 0xb5
0000             81   _ADC0ASCF       DATA 0xa1
0000             82   _ADC0ASCT       DATA 0xc7
0000             83   _ADC0CF0        DATA 0xbc
0000             84   _ADC0CF1        DATA 0xb9
0000             85   _ADC0CF2        DATA 0xdf
0000             86   _ADC0CN0        DATA 0xe8
0000             87   _ADC0CN1        DATA 0xb2
0000             88   _ADC0CN2        DATA 0xb3
0000             89   _ADC0GTH        DATA 0xc4
0000             90   _ADC0GTL        DATA 0xc3
0000             91   _ADC0H          DATA 0xbe
0000             92   _ADC0L          DATA 0xbd
0000             93   _ADC0LTH        DATA 0xc6
0000             94   _ADC0LTL        DATA 0xc5
0000             95   _ADC0MX         DATA 0xbb
0000             96   _B              DATA 0xf0
0000             97   _CKCON0         DATA 0x8e
0000             98   _CKCON1         DATA 0xa6
0000             99   _CLEN0          DATA 0xc6
0000            100   _CLIE0          DATA 0xc7
0000            101   _CLIF0          DATA 0xe8
0000            102   _CLKSEL         DATA 0xa9
0000            103   _CLOUT0         DATA 0xd1
0000            104   _CLU0CF         DATA 0xb1
0000            105   _CLU0FN         DATA 0xaf
0000            106   _CLU0MX         DATA 0x84
0000            107   _CLU1CF         DATA 0xb3
0000            108   _CLU1FN         DATA 0xb2
0000            109   _CLU1MX         DATA 0x85
0000            110   _CLU2CF         DATA 0xb6
0000            111   _CLU2FN         DATA 0xb5
0000            112   _CLU2MX         DATA 0x91
0000            113   _CLU3CF         DATA 0xbf
0000            114   _CLU3FN         DATA 0xbe
0000            115   _CLU3MX         DATA 0xae
0000            116   _CMP0CN0        DATA 0x9b
0000            117   _CMP0CN1        DATA 0x99
0000            118   _CMP0MD         DATA 0x9d
0000            119   _CMP0MX         DATA 0x9f
0000            120   _CMP1CN0        DATA 0xbf
0000            121   _CMP1CN1        DATA 0xac
0000            122   _CMP1MD         DATA 0xab
0000            123   _CMP1MX         DATA 0xaa
0000            124   _CRC0CN0        DATA 0xce
0000            125   _CRC0CN1        DATA 0x86
0000            126   _CRC0CNT        DATA 0xd3
0000            127   _CRC0DAT        DATA 0xcb
0000            128   _CRC0FLIP       DATA 0xcf
0000            129   _CRC0IN         DATA 0xca
0000            130   _CRC0ST         DATA 0xd2
0000            131   _DAC0CF0        DATA 0x91
0000            132   _DAC0CF1        DATA 0x92
0000            133   _DAC0H          DATA 0x85
0000            134   _DAC0L          DATA 0x84
0000            135   _DAC1CF0        DATA 0x93
0000            136   _DAC1CF1        DATA 0x94
0000            137   _DAC1H          DATA 0x8a
0000            138   _DAC1L          DATA 0x89
0000            139   _DAC2CF0        DATA 0x95
0000            140   _DAC2CF1        DATA 0x96
0000            141   _DAC2H          DATA 0x8c
0000            142   _DAC2L          DATA 0x8b
0000            143   _DAC3CF0        DATA 0x9a
0000            144   _DAC3CF1        DATA 0x9c
0000            145   _DAC3H          DATA 0x8e
0000            146   _DAC3L          DATA 0x8d
0000            147   _DACGCF0        DATA 0x88
0000            148   _DACGCF1        DATA 0x98
0000            149   _DACGCF2        DATA 0xa2
0000            150   _DERIVID        DATA 0xad
0000            151   _DEVICEID       DATA 0xb5
0000            152   _DPH            DATA 0x83
0000            153   _DPL            DATA 0x82
0000            154   _EIE1           DATA 0xe6
0000            155   _EIE2           DATA 0xf3
0000            156   _EIP1           DATA 0xbb
0000            157   _EIP1H          DATA 0xee
0000            158   _EIP2           DATA 0xed
0000            159   _EIP2H          DATA 0xf6
0000            160   _EMI0CN         DATA 0xe7
0000            161   _FLKEY          DATA 0xb7
0000            162   _HFO0CAL        DATA 0xc7
0000            163   _HFO1CAL        DATA 0xd6
0000            164   _HFOCN          DATA 0xef
0000            165   _I2C0ADM        DATA 0xff
0000            166   _I2C0CN0        DATA 0xba
0000            167   _I2C0DIN        DATA 0xbc
0000            168   _I2C0DOUT       DATA 0xbb
0000            169   _I2C0FCN0       DATA 0xad
0000            170   _I2C0FCN1       DATA 0xab
0000            171   _I2C0FCT        DATA 0xf5
0000            172   _I2C0SLAD       DATA 0xbd
0000            173   _I2C0STAT       DATA 0xb9
0000            174   _IE             DATA 0xa8
0000            175   _IP             DATA 0xb8
0000            176   _IPH            DATA 0xf2
0000            177   _IT01CF         DATA 0xe4
0000            178   _LFO0CN         DATA 0xb1
0000            179   _P0             DATA 0x80
0000            180   _P0MASK         DATA 0xfe
0000            181   _P0MAT          DATA 0xfd
0000            182   _P0MDIN         DATA 0xf1
0000            183   _P0MDOUT        DATA 0xa4
0000            184   _P0SKIP         DATA 0xd4
0000            185   _P1             DATA 0x90
0000            186   _P1MASK         DATA 0xee
0000            187   _P1MAT          DATA 0xed
0000            188   _P1MDIN         DATA 0xf2
0000            189   _P1MDOUT        DATA 0xa5
0000            190   _P1SKIP         DATA 0xd5
0000            191   _P2             DATA 0xa0
0000            192   _P2MASK         DATA 0xfc
0000            193   _P2MAT          DATA 0xfb
0000            194   _P2MDIN         DATA 0xf3
0000            195   _P2MDOUT        DATA 0xa6
0000            196   _P2SKIP         DATA 0xcc
0000            197   _P3             DATA 0xb0
0000            198   _P3MDIN         DATA 0xf4
0000            199   _P3MDOUT        DATA 0x9c
0000            200   _PCA0CENT       DATA 0x9e
0000            201   _PCA0CLR        DATA 0x9c
0000            202   _PCA0CN0        DATA 0xd8
0000            203   _PCA0CPH0       DATA 0xfc
0000            204   _PCA0CPH1       DATA 0xea
0000            205   _PCA0CPH2       DATA 0xec
0000            206   _PCA0CPH3       DATA 0xf5
0000            207   _PCA0CPH4       DATA 0x85
0000            208   _PCA0CPH5       DATA 0xde
0000            209   _PCA0CPL0       DATA 0xfb
0000            210   _PCA0CPL1       DATA 0xe9
0000            211   _PCA0CPL2       DATA 0xeb
0000            212   _PCA0CPL3       DATA 0xf4
0000            213   _PCA0CPL4       DATA 0x84
0000            214   _PCA0CPL5       DATA 0xdd
0000            215   _PCA0CPM0       DATA 0xda
0000            216   _PCA0CPM1       DATA 0xdb
0000            217   _PCA0CPM2       DATA 0xdc
0000            218   _PCA0CPM3       DATA 0xae
0000            219   _PCA0CPM4       DATA 0xaf
0000            220   _PCA0CPM5       DATA 0xcc
0000            221   _PCA0H          DATA 0xfa
0000            222   _PCA0L          DATA 0xf9
0000            223   _PCA0MD         DATA 0xd9
0000            224   _PCA0POL        DATA 0x96
0000            225   _PCA0PWM        DATA 0xf7
0000            226   _PCON0          DATA 0x87
0000            227   _PCON1          DATA 0xcd
0000            228   _PFE0CN         DATA 0xc1
0000            229   _PRTDRV         DATA 0xf6
0000            230   _PSCTL          DATA 0x8f
0000            231   _PSTAT0         DATA 0xaa
0000            232   _PSW            DATA 0xd0
0000            233   _REF0CN         DATA 0xd1
0000            234   _REG0CN         DATA 0xc9
0000            235   _REVID          DATA 0xb6
0000            236   _RSTSRC         DATA 0xef
0000            237   _SBCON1         DATA 0x94
0000            238   _SBRLH1         DATA 0x96
0000            239   _SBRLL1         DATA 0x95
0000            240   _SBUF           DATA 0x99
0000            241   _SBUF0          DATA 0x99
0000            242   _SBUF1          DATA 0x92
0000            243   _SCON           DATA 0x98
0000            244   _SCON0          DATA 0x98
0000            245   _SCON1          DATA 0xc8
0000            246   _SFRPAGE        DATA 0xa7
0000            247   _SFRPGCN        DATA 0xbc
0000            248   _SFRSTACK       DATA 0xd7
0000            249   _SMB0ADM        DATA 0xd6
0000            250   _SMB0ADR        DATA 0xd7
0000            251   _SMB0CF         DATA 0xc1
0000            252   _SMB0CN0        DATA 0xc0
0000            253   _SMB0DAT        DATA 0xc2
0000            254   _SMB0FCN0       DATA 0xc3
0000            255   _SMB0FCN1       DATA 0xc4
0000            256   _SMB0FCT        DATA 0xef
0000            257   _SMB0RXLN       DATA 0xc5
0000            258   _SMB0TC         DATA 0xac
0000            259   _SMOD1          DATA 0x93
0000            260   _SP             DATA 0x81
0000            261   _SPI0CFG        DATA 0xa1
0000            262   _SPI0CKR        DATA 0xa2
0000            263   _SPI0CN0        DATA 0xf8
0000            264   _SPI0DAT        DATA 0xa3
0000            265   _SPI0FCN0       DATA 0x9a
0000            266   _SPI0FCN1       DATA 0x9b
0000            267   _SPI0FCT        DATA 0xf7
0000            268   _SPI0PCF        DATA 0xdf
0000            269   _TCON           DATA 0x88
0000            270   _TH0            DATA 0x8c
0000            271   _TH1            DATA 0x8d
0000            272   _TL0            DATA 0x8a
0000            273   _TL1            DATA 0x8b
0000            274   _TMOD           DATA 0x89
0000            275   _TMR2CN0        DATA 0xc8
0000            276   _TMR2CN1        DATA 0xfd
0000            277   _TMR2H          DATA 0xcf
0000            278   _TMR2L          DATA 0xce
0000            279   _TMR2RLH        DATA 0xcb
0000            280   _TMR2RLL        DATA 0xca
0000            281   _TMR3CN0        DATA 0x91
0000            282   _TMR3CN1        DATA 0xfe
0000            283   _TMR3H          DATA 0x95
0000            284   _TMR3L          DATA 0x94
0000            285   _TMR3RLH        DATA 0x93
0000            286   _TMR3RLL        DATA 0x92
0000            287   _TMR4CN0        DATA 0x98
0000            288   _TMR4CN1        DATA 0xff
0000            289   _TMR4H          DATA 0xa5
0000            290   _TMR4L          DATA 0xa4
0000            291   _TMR4RLH        DATA 0xa3
0000            292   _TMR4RLL        DATA 0xa2
0000            293   _TMR5CN0        DATA 0xc0
0000            294   _TMR5CN1        DATA 0xf1
0000            295   _TMR5H          DATA 0xd5
0000            296   _TMR5L          DATA 0xd4
0000            297   _TMR5RLH        DATA 0xd3
0000            298   _TMR5RLL        DATA 0xd2
0000            299   _UART0PCF       DATA 0xd9
0000            300   _UART1FCN0      DATA 0x9d
0000            301   _UART1FCN1      DATA 0xd8
0000            302   _UART1FCT       DATA 0xfa
0000            303   _UART1LIN       DATA 0x9e
0000            304   _UART1PCF       DATA 0xda
0000            305   _VDM0CN         DATA 0xff
0000            306   _WDTCN          DATA 0x97
0000            307   _XBR0           DATA 0xe1
0000            308   _XBR1           DATA 0xe2
0000            309   _XBR2           DATA 0xe3
0000            310   _XOSC0CN        DATA 0x86
0000            311   _DPTR           DATA 0x8382
0000            312   _TMR2RL         DATA 0xcbca
0000            313   _TMR3RL         DATA 0x9392
0000            314   _TMR4RL         DATA 0xa3a2
0000            315   _TMR5RL         DATA 0xd3d2
0000            316   _TMR0           DATA 0x8c8a
0000            317   _TMR1           DATA 0x8d8b
0000            318   _TMR2           DATA 0xcfce
0000            319   _TMR3           DATA 0x9594
0000            320   _TMR4           DATA 0xa5a4
0000            321   _TMR5           DATA 0xd5d4
0000            322   _SBRL1          DATA 0x9695
0000            323   _PCA0           DATA 0xfaf9
0000            324   _PCA0CP0        DATA 0xfcfb
0000            325   _PCA0CP1        DATA 0xeae9
0000            326   _PCA0CP2        DATA 0xeceb
0000            327   _PCA0CP3        DATA 0xf5f4
0000            328   _PCA0CP4        DATA 0x8584
0000            329   _PCA0CP5        DATA 0xdedd
0000            330   _ADC0ASA        DATA 0xb6b5
0000            331   _ADC0GT         DATA 0xc4c3
0000            332   _ADC0           DATA 0xbebd
0000            333   _ADC0LT         DATA 0xc6c5
0000            334   _DAC0           DATA 0x8584
0000            335   _DAC1           DATA 0x8a89
0000            336   _DAC2           DATA 0x8c8b
0000            337   _DAC3           DATA 0x8e8d
0000            338   ;--------------------------------------------------------
0000            339   ; special function bits
0000            340   ;--------------------------------------------------------
0000            341   _ACC_0          BIT 0xe0
0000            342   _ACC_1          BIT 0xe1
0000            343   _ACC_2          BIT 0xe2
0000            344   _ACC_3          BIT 0xe3
0000            345   _ACC_4          BIT 0xe4
0000            346   _ACC_5          BIT 0xe5
0000            347   _ACC_6          BIT 0xe6
0000            348   _ACC_7          BIT 0xe7
0000            349   _TEMPE          BIT 0xe8
0000            350   _ADGN0          BIT 0xe9
0000            351   _ADGN1          BIT 0xea
0000            352   _ADWINT         BIT 0xeb
0000            353   _ADBUSY         BIT 0xec
0000            354   _ADINT          BIT 0xed
0000            355   _IPOEN          BIT 0xee
0000            356   _ADEN           BIT 0xef
0000            357   _B_0            BIT 0xf0
0000            358   _B_1            BIT 0xf1
0000            359   _B_2            BIT 0xf2
0000            360   _B_3            BIT 0xf3
0000            361   _B_4            BIT 0xf4
0000            362   _B_5            BIT 0xf5
0000            363   _B_6            BIT 0xf6
0000            364   _B_7            BIT 0xf7
0000            365   _C0FIF          BIT 0xe8
0000            366   _C0RIF          BIT 0xe9
0000            367   _C1FIF          BIT 0xea
0000            368   _C1RIF          BIT 0xeb
0000            369   _C2FIF          BIT 0xec
0000            370   _C2RIF          BIT 0xed
0000            371   _C3FIF          BIT 0xee
0000            372   _C3RIF          BIT 0xef
0000            373   _D1SRC0         BIT 0x88
0000            374   _D1SRC1         BIT 0x89
0000            375   _D1AMEN         BIT 0x8a
0000            376   _D01REFSL       BIT 0x8b
0000            377   _D3SRC0         BIT 0x8c
0000            378   _D3SRC1         BIT 0x8d
0000            379   _D3AMEN         BIT 0x8e
0000            380   _D23REFSL       BIT 0x8f
0000            381   _D0UDIS         BIT 0x98
0000            382   _D1UDIS         BIT 0x99
0000            383   _D2UDIS         BIT 0x9a
0000            384   _D3UDIS         BIT 0x9b
0000            385   _EX0            BIT 0xa8
0000            386   _ET0            BIT 0xa9
0000            387   _EX1            BIT 0xaa
0000            388   _ET1            BIT 0xab
0000            389   _ES0            BIT 0xac
0000            390   _ET2            BIT 0xad
0000            391   _ESPI0          BIT 0xae
0000            392   _EA             BIT 0xaf
0000            393   _PX0            BIT 0xb8
0000            394   _PT0            BIT 0xb9
0000            395   _PX1            BIT 0xba
0000            396   _PT1            BIT 0xbb
0000            397   _PS0            BIT 0xbc
0000            398   _PT2            BIT 0xbd
0000            399   _PSPI0          BIT 0xbe
0000            400   _P0_0           BIT 0x80
0000            401   _P0_1           BIT 0x81
0000            402   _P0_2           BIT 0x82
0000            403   _P0_3           BIT 0x83
0000            404   _P0_4           BIT 0x84
0000            405   _P0_5           BIT 0x85
0000            406   _P0_6           BIT 0x86
0000            407   _P0_7           BIT 0x87
0000            408   _P1_0           BIT 0x90
0000            409   _P1_1           BIT 0x91
0000            410   _P1_2           BIT 0x92
0000            411   _P1_3           BIT 0x93
0000            412   _P1_4           BIT 0x94
0000            413   _P1_5           BIT 0x95
0000            414   _P1_6           BIT 0x96
0000            415   _P1_7           BIT 0x97
0000            416   _P2_0           BIT 0xa0
0000            417   _P2_1           BIT 0xa1
0000            418   _P2_2           BIT 0xa2
0000            419   _P2_3           BIT 0xa3
0000            420   _P2_4           BIT 0xa4
0000            421   _P2_5           BIT 0xa5
0000            422   _P2_6           BIT 0xa6
0000            423   _P3_0           BIT 0xb0
0000            424   _P3_1           BIT 0xb1
0000            425   _P3_2           BIT 0xb2
0000            426   _P3_3           BIT 0xb3
0000            427   _P3_4           BIT 0xb4
0000            428   _P3_7           BIT 0xb7
0000            429   _CCF0           BIT 0xd8
0000            430   _CCF1           BIT 0xd9
0000            431   _CCF2           BIT 0xda
0000            432   _CCF3           BIT 0xdb
0000            433   _CCF4           BIT 0xdc
0000            434   _CCF5           BIT 0xdd
0000            435   _CR             BIT 0xde
0000            436   _CF             BIT 0xdf
0000            437   _PARITY         BIT 0xd0
0000            438   _F1             BIT 0xd1
0000            439   _OV             BIT 0xd2
0000            440   _RS0            BIT 0xd3
0000            441   _RS1            BIT 0xd4
0000            442   _F0             BIT 0xd5
0000            443   _AC             BIT 0xd6
0000            444   _CY             BIT 0xd7
0000            445   _RI             BIT 0x98
0000            446   _TI             BIT 0x99
0000            447   _RB8            BIT 0x9a
0000            448   _TB8            BIT 0x9b
0000            449   _REN            BIT 0x9c
0000            450   _CE             BIT 0x9d
0000            451   _SMODE          BIT 0x9e
0000            452   _RI1            BIT 0xc8
0000            453   _TI1            BIT 0xc9
0000            454   _RBX1           BIT 0xca
0000            455   _TBX1           BIT 0xcb
0000            456   _REN1           BIT 0xcc
0000            457   _PERR1          BIT 0xcd
0000            458   _OVR1           BIT 0xce
0000            459   _SI             BIT 0xc0
0000            460   _ACK            BIT 0xc1
0000            461   _ARBLOST        BIT 0xc2
0000            462   _ACKRQ          BIT 0xc3
0000            463   _STO            BIT 0xc4
0000            464   _STA            BIT 0xc5
0000            465   _TXMODE         BIT 0xc6
0000            466   _MASTER         BIT 0xc7
0000            467   _SPIEN          BIT 0xf8
0000            468   _TXNF           BIT 0xf9
0000            469   _NSSMD0         BIT 0xfa
0000            470   _NSSMD1         BIT 0xfb
0000            471   _RXOVRN         BIT 0xfc
0000            472   _MODF           BIT 0xfd
0000            473   _WCOL           BIT 0xfe
0000            474   _SPIF           BIT 0xff
0000            475   _IT0            BIT 0x88
0000            476   _IE0            BIT 0x89
0000            477   _IT1            BIT 0x8a
0000            478   _IE1            BIT 0x8b
0000            479   _TR0            BIT 0x8c
0000            480   _TF0            BIT 0x8d
0000            481   _TR1            BIT 0x8e
0000            482   _TF1            BIT 0x8f
0000            483   _T2XCLK0        BIT 0xc8
0000            484   _T2XCLK1        BIT 0xc9
0000            485   _TR2            BIT 0xca
0000            486   _T2SPLIT        BIT 0xcb
0000            487   _TF2CEN         BIT 0xcc
0000            488   _TF2LEN         BIT 0xcd
0000            489   _TF2L           BIT 0xce
0000            490   _TF2H           BIT 0xcf
0000            491   _T4XCLK0        BIT 0x98
0000            492   _T4XCLK1        BIT 0x99
0000            493   _TR4            BIT 0x9a
0000            494   _T4SPLIT        BIT 0x9b
0000            495   _TF4CEN         BIT 0x9c
0000            496   _TF4LEN         BIT 0x9d
0000            497   _TF4L           BIT 0x9e
0000            498   _TF4H           BIT 0x9f
0000            499   _T5XCLK0        BIT 0xc0
0000            500   _T5XCLK1        BIT 0xc1
0000            501   _TR5            BIT 0xc2
0000            502   _T5SPLIT        BIT 0xc3
0000            503   _TF5CEN         BIT 0xc4
0000            504   _TF5LEN         BIT 0xc5
0000            505   _TF5L           BIT 0xc6
0000            506   _TF5H           BIT 0xc7
0000            507   _RIE            BIT 0xd8
0000            508   _RXTO0          BIT 0xd9
0000            509   _RXTO1          BIT 0xda
0000            510   _RFRQ           BIT 0xdb
0000            511   _TIE            BIT 0xdc
0000            512   _TXHOLD         BIT 0xdd
0000            513   _TXNF1          BIT 0xde
0000            514   _TFRQ           BIT 0xdf
0000            515   ;--------------------------------------------------------
0000            516   ; overlayable register banks
0000            517   ;--------------------------------------------------------
0000            518            rbank0 segment data overlay
0000            519   ;--------------------------------------------------------
0000            520   ; internal ram data
0000            521   ;--------------------------------------------------------
0000            522            rseg R_DSEG
0000            523   _saved_password:
0000            524            ds 1
0001            525   _program_step:
0001            526            ds 1
0002            527   _stopwatch_seconds:
0002            528            ds 2
0004            529   _stopwatch_minutes:
0004            530            ds 1
0005            531   _stopwatch_secs:
0005            532            ds 1
0006            533   _Print4Digit_PARM_2:
0006            534            ds 2
0008            535   _current_path:
0008            536            ds 1
0009            537   _LCDprint_PARM_2:
0009            538            ds 1
000A            539   _Update_Status_Line_s_1_110:
000A            540            ds 17
001B            541   _Send_Joystick_Proportional_lb_1_125:
001B            542            ds 1
001C            543   _Send_Joystick_Proportional_percent_1_125:
001C            544            ds 1
001D            545   _Send_Joystick_Proportional_sloc0_1_0:
001D            546            ds 2
001F            547   _Password_Entry_Screen_pass_str_1_138:
001F            548            ds 5
0024            549   _Timer2_ISR_tick_count_1_149:
0024            550            ds 1
0025            551   _main_i_1_176:
0025            552            ds 1
0026            553   _main_battery_percent_carr_1_176:
0026            554            ds 3
0029            555   ;--------------------------------------------------------
0029            556   ; overlayable items in internal ram 
0029            557   ;--------------------------------------------------------
0000            558            rseg    R_OSEG
0000            559            rseg    R_OSEG
0000            560            rseg    R_OSEG
0000            561   _InitPinADC_PARM_2:
0000            562            ds 1
0001            563            rseg    R_OSEG
0001            564            rseg    R_OSEG
0001            565            rseg    R_OSEG
0001            566            rseg    R_OSEG
0001            567   _Password4BitToString_PARM_2:
0001            568            ds 3
0004            569   ;--------------------------------------------------------
0004            570   ; indirectly addressable internal ram data
0004            571   ;--------------------------------------------------------
0000            572            rseg R_ISEG
0000            573   ;--------------------------------------------------------
0000            574   ; absolute internal ram data
0000            575   ;--------------------------------------------------------
0000            576            DSEG
0000            577   ;--------------------------------------------------------
0000            578   ; bit data
0000            579   ;--------------------------------------------------------
0000            580            rseg R_BSEG
0000            581   _password_set:
0000            582            DBIT    1
0001            583   _is_locked:
0001            584            DBIT    1
0002            585   _stopwatch_paused:
0002            586            DBIT    1
0003            587   _timer_tick:
0003            588            DBIT    1
0004            589   _auto_mode:
0004            590            DBIT    1
0005            591   _LCDprint_PARM_3:
0005            592            DBIT    1
0006            593   _IR_HalfPeriod_PARM_1:
0006            594            DBIT    1
0007            595   _IR_LoopbackByte_is_space_1_105:
0007            596            DBIT    1
0008            597   ;--------------------------------------------------------
0008            598   ; paged external ram data
0008            599   ;--------------------------------------------------------
0000            600            rseg R_PSEG
0000            601   ;--------------------------------------------------------
0000            602   ; external ram data
0000            603   ;--------------------------------------------------------
0000            604            rseg R_XSEG
0000            605   _program_path:
0000            606            ds 8
0008            607   _Show_Command_line_1_120:
0008            608            ds 17
0019            609   _Send_Joystick_Proportional_disp_1_125:
0019            610            ds 17
002A            611   _Password_Entry_Screen_line2_1_138:
002A            612            ds 17
003B            613   _Update_Stopwatch_Display_line_1_153:
003B            614            ds 17
004C            615   _Program_Mode_line1_1_157:
004C            616            ds 17
005D            617   _Program_Mode_line2_1_157:
005D            618            ds 17
006E            619   _main_line2_1_176:
006E            620            ds 17
007F            621   ;--------------------------------------------------------
007F            622   ; absolute external ram data
007F            623   ;--------------------------------------------------------
0000            624            XSEG
0000            625   ;--------------------------------------------------------
0000            626   ; external initialized ram data
0000            627   ;--------------------------------------------------------
0000            628            rseg R_IXSEG
0000            629            rseg R_HOME
0000            630            rseg R_GSINIT
0000            631            rseg R_CSEG
0000            632   ;--------------------------------------------------------
0000            633   ; Reset entry point and interrupt vectors
0000            634   ;--------------------------------------------------------
0000            635            CSEG at 0x0000
0000 020000     636            ljmp    _crt0
002B            637            CSEG at 0x002b
002B 020000     638            ljmp    _Timer2_ISR
002E            639   ;--------------------------------------------------------
002E            640   ; global & static initialisations
002E            641   ;--------------------------------------------------------
0000            642            rseg R_HOME
0000            643            rseg R_GSINIT
0000            644            rseg R_GSINIT
0000            645   ;--------------------------------------------------------
0000            646   ; data variables initialization
0000            647   ;--------------------------------------------------------
0000            648            rseg R_DINIT
0000            649   ;------------------------------------------------------------
0000            650   ;Allocation info for local variables in function 'Timer2_ISR'
0000            651   ;------------------------------------------------------------
0000            652   ;tick_count                Allocated with name '_Timer2_ISR_tick_count_1_149'
0000            653   ;------------------------------------------------------------
0000            654   ;        C:\Vincent\source\tramsitterStopwatch.c:659: static unsigned char tick_count = 0;
0000 758800     655            mov     _Timer2_ISR_tick_count_1_149,#0x00
0003            656   ;        C:\Vincent\source\tramsitterStopwatch.c:89: unsigned char saved_password = 0;      // 4-bit password (0000-1111)
0003 75F800     657            mov     _saved_password,#0x00
0006            658   ;        C:\Vincent\source\tramsitterStopwatch.c:97: unsigned char program_step = 0;       // Keep in DATA (single byte)
0006 75B800     659            mov     _program_step,#0x00
0009            660   ;        C:\Vincent\source\tramsitterStopwatch.c:102: unsigned int  stopwatch_seconds = 0;  // Total seconds elapsed
0009 E4         661            clr     a
000A F578       662            mov     _stopwatch_seconds,a
000C F579       663            mov     (_stopwatch_seconds + 1),a
000E            664   ;        C:\Vincent\source\tramsitterStopwatch.c:103: unsigned char stopwatch_minutes = 0;  // Minutes (derived from seconds)
000E 752800     665            mov     _stopwatch_minutes,#0x00
0011            666   ;        C:\Vincent\source\tramsitterStopwatch.c:104: unsigned char stopwatch_secs    = 0;  // Seconds within minute (0-59)
0011 75D800     667            mov     _stopwatch_secs,#0x00
0014            668   ;        C:\Vincent\source\tramsitterStopwatch.c:148: unsigned char current_path = 1;
0014 754801     669            mov     _current_path,#0x01
0017            670   ;        C:\Vincent\source\tramsitterStopwatch.c:90: bit           password_set = 0;        // Has password been set?
0017 C2B8       671            clr     _password_set
0019            672   ;        C:\Vincent\source\tramsitterStopwatch.c:91: bit           is_locked = 0;           // Is remote currently locked?
0019 C278       673            clr     _is_locked
001B            674   ;        C:\Vincent\source\tramsitterStopwatch.c:105: bit           stopwatch_paused  = 0;  // Is stopwatch paused?
001B C238       675            clr     _stopwatch_paused
001D            676   ;        C:\Vincent\source\tramsitterStopwatch.c:106: bit           timer_tick        = 0;  // Set by Timer2 ISR every ~1 second
001D C2E8       677            clr     _timer_tick
001F            678   ;        C:\Vincent\source\tramsitterStopwatch.c:149: bit           auto_mode    = 0;
001F C2A8       679            clr     _auto_mode
0021            680            ; The linker places a 'ret' at the end of segment R_DINIT.
0021            681   ;--------------------------------------------------------
0021            682   ; code
0021            683   ;--------------------------------------------------------
0000            684            rseg R_CSEG
0000            685   ;------------------------------------------------------------
0000            686   ;Allocation info for local variables in function 'Print4Digit'
0000            687   ;------------------------------------------------------------
0000            688   ;val                       Allocated with name '_Print4Digit_PARM_2'
0000            689   ;str                       Allocated to registers r2 r3 r4 
0000            690   ;------------------------------------------------------------
0000            691   ;        C:\Vincent\source\tramsitterStopwatch.c:109: void Print4Digit(char *str, unsigned int val) {
0000            692   ;        -----------------------------------------
0000            693   ;         function Print4Digit
0000            694   ;        -----------------------------------------
0000            695   _Print4Digit:
0000            696            using   0
0000 AA82       697            mov     r2,dpl
0002 AB83       698            mov     r3,dph
0004 ACF0       699            mov     r4,b
0006            700   ;        C:\Vincent\source\tramsitterStopwatch.c:110: str[0] = (val / 1000) % 10 + '0';
0006 7500E8     701            mov     __divuint_PARM_2,#0xE8
0009 750103     702            mov     (__divuint_PARM_2 + 1),#0x03
000C 859882     703            mov     dpl,_Print4Digit_PARM_2
000F 859983     704            mov     dph,(_Print4Digit_PARM_2 + 1)
0012 C002       705            push    ar2
0014 C003       706            push    ar3
0016 C004       707            push    ar4
0018 120000     708            lcall   __divuint
001B AD82       709            mov     r5,dpl
001D AE83       710            mov     r6,dph
001F 75000A     711            mov     __moduint_PARM_2,#0x0A
0022 E4         712            clr     a
0023 F501       713            mov     (__moduint_PARM_2 + 1),a
0025 8D82       714            mov     dpl,r5
0027 8E83       715            mov     dph,r6
0029 120000     716            lcall   __moduint
002C AD82       717            mov     r5,dpl
002E D004       718            pop     ar4
0030 D003       719            pop     ar3
0032 D002       720            pop     ar2
0034 7430       721            mov     a,#0x30
0036 2D         722            add     a,r5
0037 8A82       723            mov     dpl,r2
0039 8B83       724            mov     dph,r3
003B 8CF0       725            mov     b,r4
003D 120000     726            lcall   __gptrput
0040            727   ;        C:\Vincent\source\tramsitterStopwatch.c:111: str[1] = (val / 100) % 10 + '0';
0040 7401       728            mov     a,#0x01
0042 2A         729            add     a,r2
0043 FD         730            mov     r5,a
0044 E4         731            clr     a
0045 3B         732            addc    a,r3
0046 FE         733            mov     r6,a
0047 8C07       734            mov     ar7,r4
0049 750064     735            mov     __divuint_PARM_2,#0x64
004C E4         736            clr     a
004D F501       737            mov     (__divuint_PARM_2 + 1),a
004F 859882     738            mov     dpl,_Print4Digit_PARM_2
0052 859983     739            mov     dph,(_Print4Digit_PARM_2 + 1)
0055 C002       740            push    ar2
0057 C003       741            push    ar3
0059 C004       742            push    ar4
005B C005       743            push    ar5
005D C006       744            push    ar6
005F C007       745            push    ar7
0061 120000     746            lcall   __divuint
0064 A882       747            mov     r0,dpl
0066 A983       748            mov     r1,dph
0068 75000A     749            mov     __moduint_PARM_2,#0x0A
006B E4         750            clr     a
006C F501       751            mov     (__moduint_PARM_2 + 1),a
006E 8882       752            mov     dpl,r0
0070 8983       753            mov     dph,r1
0072 120000     754            lcall   __moduint
0075 A882       755            mov     r0,dpl
0077 D007       756            pop     ar7
0079 D006       757            pop     ar6
007B D005       758            pop     ar5
007D D004       759            pop     ar4
007F D003       760            pop     ar3
0081 D002       761            pop     ar2
0083 7430       762            mov     a,#0x30
0085 28         763            add     a,r0
0086 8D82       764            mov     dpl,r5
0088 8E83       765            mov     dph,r6
008A 8FF0       766            mov     b,r7
008C 120000     767            lcall   __gptrput
008F            768   ;        C:\Vincent\source\tramsitterStopwatch.c:112: str[2] = (val / 10) % 10 + '0';
008F 7402       769            mov     a,#0x02
0091 2A         770            add     a,r2
0092 FD         771            mov     r5,a
0093 E4         772            clr     a
0094 3B         773            addc    a,r3
0095 FE         774            mov     r6,a
0096 8C07       775            mov     ar7,r4
0098 75000A     776            mov     __divuint_PARM_2,#0x0A
009B E4         777            clr     a
009C F501       778            mov     (__divuint_PARM_2 + 1),a
009E 859882     779            mov     dpl,_Print4Digit_PARM_2
00A1 859983     780            mov     dph,(_Print4Digit_PARM_2 + 1)
00A4 C002       781            push    ar2
00A6 C003       782            push    ar3
00A8 C004       783            push    ar4
00AA C005       784            push    ar5
00AC C006       785            push    ar6
00AE C007       786            push    ar7
00B0 120000     787            lcall   __divuint
00B3 A882       788            mov     r0,dpl
00B5 A983       789            mov     r1,dph
00B7 75000A     790            mov     __moduint_PARM_2,#0x0A
00BA E4         791            clr     a
00BB F501       792            mov     (__moduint_PARM_2 + 1),a
00BD 8882       793            mov     dpl,r0
00BF 8983       794            mov     dph,r1
00C1 120000     795            lcall   __moduint
00C4 A882       796            mov     r0,dpl
00C6 D007       797            pop     ar7
00C8 D006       798            pop     ar6
00CA D005       799            pop     ar5
00CC D004       800            pop     ar4
00CE D003       801            pop     ar3
00D0 D002       802            pop     ar2
00D2 7430       803            mov     a,#0x30
00D4 28         804            add     a,r0
00D5 8D82       805            mov     dpl,r5
00D7 8E83       806            mov     dph,r6
00D9 8FF0       807            mov     b,r7
00DB 120000     808            lcall   __gptrput
00DE            809   ;        C:\Vincent\source\tramsitterStopwatch.c:113: str[3] = (val % 10) + '0';
00DE 7403       810            mov     a,#0x03
00E0 2A         811            add     a,r2
00E1 FA         812            mov     r2,a
00E2 E4         813            clr     a
00E3 3B         814            addc    a,r3
00E4 FB         815            mov     r3,a
00E5 75000A     816            mov     __moduint_PARM_2,#0x0A
00E8 E4         817            clr     a
00E9 F501       818            mov     (__moduint_PARM_2 + 1),a
00EB 859882     819            mov     dpl,_Print4Digit_PARM_2
00EE 859983     820            mov     dph,(_Print4Digit_PARM_2 + 1)
00F1 C002       821            push    ar2
00F3 C003       822            push    ar3
00F5 C004       823            push    ar4
00F7 120000     824            lcall   __moduint
00FA AD82       825            mov     r5,dpl
00FC D004       826            pop     ar4
00FE D003       827            pop     ar3
0100 D002       828            pop     ar2
0102 7430       829            mov     a,#0x30
0104 2D         830            add     a,r5
0105 8A82       831            mov     dpl,r2
0107 8B83       832            mov     dph,r3
0109 8CF0       833            mov     b,r4
010B 020000     834            ljmp    __gptrput
010E            835   ;------------------------------------------------------------
010E            836   ;Allocation info for local variables in function '_c51_external_startup'
010E            837   ;------------------------------------------------------------
010E            838   ;------------------------------------------------------------
010E            839   ;        C:\Vincent\source\tramsitterStopwatch.c:151: char _c51_external_startup(void)
010E            840   ;        -----------------------------------------
010E            841   ;         function _c51_external_startup
010E            842   ;        -----------------------------------------
010E            843   __c51_external_startup:
010E            844   ;        C:\Vincent\source\tramsitterStopwatch.c:153: SFRPAGE = 0x00;
010E 75A700     845            mov     _SFRPAGE,#0x00
0111            846   ;        C:\Vincent\source\tramsitterStopwatch.c:154: WDTCN = 0xDE;
0111 7597DE     847            mov     _WDTCN,#0xDE
0114            848   ;        C:\Vincent\source\tramsitterStopwatch.c:155: WDTCN = 0xAD;
0114 7597AD     849            mov     _WDTCN,#0xAD
0117            850   ;        C:\Vincent\source\tramsitterStopwatch.c:156: VDM0CN |= 0x80;
0117 43FF80     851            orl     _VDM0CN,#0x80
011A            852   ;        C:\Vincent\source\tramsitterStopwatch.c:157: RSTSRC  = 0x02;
011A 75EF02     853            mov     _RSTSRC,#0x02
011D            854   ;        C:\Vincent\source\tramsitterStopwatch.c:158: SFRPAGE = 0x10;
011D 75A710     855            mov     _SFRPAGE,#0x10
0120            856   ;        C:\Vincent\source\tramsitterStopwatch.c:159: PFE0CN  = 0x20;
0120 75C120     857            mov     _PFE0CN,#0x20
0123            858   ;        C:\Vincent\source\tramsitterStopwatch.c:160: SFRPAGE = 0x00;
0123 75A700     859            mov     _SFRPAGE,#0x00
0126            860   ;        C:\Vincent\source\tramsitterStopwatch.c:161: CLKSEL = 0x00; CLKSEL = 0x00;
0126 75A900     861            mov     _CLKSEL,#0x00
0129 75A900     862            mov     _CLKSEL,#0x00
012C            863   ;        C:\Vincent\source\tramsitterStopwatch.c:162: while ((CLKSEL & 0x80) == 0);
012C            864   L003001?:
012C E5A9       865            mov     a,_CLKSEL
012E 30E778     866            jnb     acc.7,L003001?
0131            867   ;        C:\Vincent\source\tramsitterStopwatch.c:163: CLKSEL = 0x03; CLKSEL = 0x03;
0131 75A903     868            mov     _CLKSEL,#0x03
0134 75A903     869            mov     _CLKSEL,#0x03
0137            870   ;        C:\Vincent\source\tramsitterStopwatch.c:164: while ((CLKSEL & 0x80) == 0);
0137            871   L003004?:
0137 E5A9       872            mov     a,_CLKSEL
0139 30E7F8     873            jnb     acc.7,L003004?
013C            874   ;        C:\Vincent\source\tramsitterStopwatch.c:166: P0MDOUT |= 0x10; // Enable UART0 TX as push-pull output
013C 43A410     875            orl     _P0MDOUT,#0x10
013F            876   ;        C:\Vincent\source\tramsitterStopwatch.c:167: P1MDOUT |= 0x9F;
013F 43A59F     877            orl     _P1MDOUT,#0x9F
0142            878   ;        C:\Vincent\source\tramsitterStopwatch.c:168: P2MDOUT |= 0x01;
0142 43A601     879            orl     _P2MDOUT,#0x01
0145            880   ;        C:\Vincent\source\tramsitterStopwatch.c:170: SFRPAGE = 0x20;
0145 75A720     881            mov     _SFRPAGE,#0x20
0148            882   ;        C:\Vincent\source\tramsitterStopwatch.c:171: P2MDIN &= ~0x06;
0148 53F3F9     883            anl     _P2MDIN,#0xF9
014B            884   ;        C:\Vincent\source\tramsitterStopwatch.c:172: P2SKIP  |=  0x06;
014B 43CC06     885            orl     _P2SKIP,#0x06
014E            886   ;        C:\Vincent\source\tramsitterStopwatch.c:173: SFRPAGE = 0x00;
014E 75A700     887            mov     _SFRPAGE,#0x00
0151            888   ;        C:\Vincent\source\tramsitterStopwatch.c:175: XBR0 = 0x01; // 0x00 to 0x01, to enable UART0 on P0.4(TX) and P0.5(RX)   
0151 75E101     889            mov     _XBR0,#0x01
0154            890   ;        C:\Vincent\source\tramsitterStopwatch.c:176: XBR1 = 0x00;
0154 75E200     891            mov     _XBR1,#0x00
0157            892   ;        C:\Vincent\source\tramsitterStopwatch.c:177: XBR2 = 0x41; // 0x40 to 0x41, to enable uart 1
0157 75E341     893            mov     _XBR2,#0x41
015A            894   ;        C:\Vincent\source\tramsitterStopwatch.c:183: SCON0 = 0x10;
015A 759810     895            mov     _SCON0,#0x10
015D            896   ;        C:\Vincent\source\tramsitterStopwatch.c:184: TH1 = 0x100-((SYSCLK/BAUDRATE)/(2L*12L));
015D 758DE6     897            mov     _TH1,#0xE6
0160            898   ;        C:\Vincent\source\tramsitterStopwatch.c:185: TL1 = TH1;      // Init Timer1
0160 858D8B     899            mov     _TL1,_TH1
0163            900   ;        C:\Vincent\source\tramsitterStopwatch.c:186: TMOD &= ~0xf0;  // TMOD: timer 1 in 8-bit auto-reload
0163 53890F     901            anl     _TMOD,#0x0F
0166            902   ;        C:\Vincent\source\tramsitterStopwatch.c:187: TMOD |=  0x20;                       
0166 438920     903            orl     _TMOD,#0x20
0169            904   ;        C:\Vincent\source\tramsitterStopwatch.c:188: TR1 = 1; // START Timer1
0169 D28E       905            setb    _TR1
016B            906   ;        C:\Vincent\source\tramsitterStopwatch.c:189: TI = 1;  // Indicate TX0 ready
016B D299       907            setb    _TI
016D            908   ;        C:\Vincent\source\tramsitterStopwatch.c:191: IR_TX   = 0;
016D C294       909            clr     _P1_4
016F            910   ;        C:\Vincent\source\tramsitterStopwatch.c:192: return 0;
016F 758200     911            mov     dpl,#0x00
0172 22         912            ret
0173            913   ;------------------------------------------------------------
0173            914   ;Allocation info for local variables in function 'putchar'
0173            915   ;------------------------------------------------------------
0173            916   ;c                         Allocated to registers r2 
0173            917   ;------------------------------------------------------------
0173            918   ;        C:\Vincent\source\tramsitterStopwatch.c:195: void putchar (char c) 
0173            919   ;        -----------------------------------------
0173            920   ;         function putchar
0173            921   ;        -----------------------------------------
0173            922   _putchar:
0173 AA82       923            mov     r2,dpl
0175            924   ;        C:\Vincent\source\tramsitterStopwatch.c:197: SFRPAGE = 0x20;
0175 75A720     925            mov     _SFRPAGE,#0x20
0178            926   ;        C:\Vincent\source\tramsitterStopwatch.c:198: if (c == '\n') 
0178 BA0A38     927            cjne    r2,#0x0A,L004006?
017B            928   ;        C:\Vincent\source\tramsitterStopwatch.c:200: while (!TI);
017B            929   L004001?:
017B            930   ;        C:\Vincent\source\tramsitterStopwatch.c:201: TI=0;
017B 1099B8     931            jbc     _TI,L004017?
017E 8000       932            sjmp    L004001?
0180            933   L004017?:
0180            934   ;        C:\Vincent\source\tramsitterStopwatch.c:202: SBUF0 = '\r';
0180 75990D     935            mov     _SBUF0,#0x0D
0183            936   ;        C:\Vincent\source\tramsitterStopwatch.c:204: while (!TI);
0183            937   L004006?:
0183            938   ;        C:\Vincent\source\tramsitterStopwatch.c:205: TI=0;
0183 1099F8     939            jbc     _TI,L004018?
0186 8000       940            sjmp    L004006?
0188            941   L004018?:
0188            942   ;        C:\Vincent\source\tramsitterStopwatch.c:206: SBUF0 = c;
0188 8A99       943            mov     _SBUF0,r2
018A            944   ;        C:\Vincent\source\tramsitterStopwatch.c:207: SFRPAGE = 0x00;
018A 75A700     945            mov     _SFRPAGE,#0x00
018D 22         946            ret
018E            947   ;------------------------------------------------------------
018E            948   ;Allocation info for local variables in function 'Timer3us'
018E            949   ;------------------------------------------------------------
018E            950   ;us                        Allocated to registers r2 
018E            951   ;i                         Allocated to registers r3 
018E            952   ;------------------------------------------------------------
018E            953   ;        C:\Vincent\source\tramsitterStopwatch.c:211: void Timer3us(unsigned char us)
018E            954   ;        -----------------------------------------
018E            955   ;         function Timer3us
018E            956   ;        -----------------------------------------
018E            957   _Timer3us:
018E AA82       958            mov     r2,dpl
0190            959   ;        C:\Vincent\source\tramsitterStopwatch.c:214: CKCON0 |= 0x40;
0190 438E40     960            orl     _CKCON0,#0x40
0193            961   ;        C:\Vincent\source\tramsitterStopwatch.c:215: TMR3RL  = (-(SYSCLK) / 1000000L);
0193 7592B8     962            mov     _TMR3RL,#0xB8
0196 7593FF     963            mov     (_TMR3RL >> 8),#0xFF
0199            964   ;        C:\Vincent\source\tramsitterStopwatch.c:216: TMR3    = TMR3RL;
0199 859294     965            mov     _TMR3,_TMR3RL
019C 859395     966            mov     (_TMR3 >> 8),(_TMR3RL >> 8)
019F            967   ;        C:\Vincent\source\tramsitterStopwatch.c:217: TMR3CN0 = 0x04;
019F 759104     968            mov     _TMR3CN0,#0x04
01A2            969   ;        C:\Vincent\source\tramsitterStopwatch.c:218: for (i = 0; i < us; i++) {
01A2 7B00       970            mov     r3,#0x00
01A4            971   L005004?:
01A4 C3         972            clr     c
01A5 EB         973            mov     a,r3
01A6 9A         974            subb    a,r2
01A7 5000       975            jnc     L005007?
01A9            976   ;        C:\Vincent\source\tramsitterStopwatch.c:219: while (!(TMR3CN0 & 0x80));
01A9            977   L005001?:
01A9 E591       978            mov     a,_TMR3CN0
01AB 30E7B8     979            jnb     acc.7,L005001?
01AE            980   ;        C:\Vincent\source\tramsitterStopwatch.c:220: TMR3CN0 &= ~0x80;
01AE 53917F     981            anl     _TMR3CN0,#0x7F
01B1            982   ;        C:\Vincent\source\tramsitterStopwatch.c:218: for (i = 0; i < us; i++) {
01B1 0B         983            inc     r3
01B2 8000       984            sjmp    L005004?
01B4            985   L005007?:
01B4            986   ;        C:\Vincent\source\tramsitterStopwatch.c:222: TMR3CN0 = 0;
01B4 759100     987            mov     _TMR3CN0,#0x00
01B7 22         988            ret
01B8            989   ;------------------------------------------------------------
01B8            990   ;Allocation info for local variables in function 'waitms'
01B8            991   ;------------------------------------------------------------
01B8            992   ;ms                        Allocated to registers r2 r3 
01B8            993   ;j                         Allocated to registers r4 r5 
01B8            994   ;k                         Allocated to registers r6 
01B8            995   ;------------------------------------------------------------
01B8            996   ;        C:\Vincent\source\tramsitterStopwatch.c:225: void waitms(unsigned int ms)
01B8            997   ;        -----------------------------------------
01B8            998   ;         function waitms
01B8            999   ;        -----------------------------------------
01B8           1000   _waitms:
01B8 AA82      1001            mov     r2,dpl
01BA AB83      1002            mov     r3,dph
01BC           1003   ;        C:\Vincent\source\tramsitterStopwatch.c:229: for (j = 0; j < ms; j++)
01BC 7C00      1004            mov     r4,#0x00
01BE 7D00      1005            mov     r5,#0x00
01C0           1006   L006005?:
01C0 C3        1007            clr     c
01C1 EC        1008            mov     a,r4
01C2 9A        1009            subb    a,r2
01C3 ED        1010            mov     a,r5
01C4 9B        1011            subb    a,r3
01C5 5000      1012            jnc     L006009?
01C7           1013   ;        C:\Vincent\source\tramsitterStopwatch.c:230: for (k = 0; k < 4; k++) Timer3us(250);
01C7 7E00      1014            mov     r6,#0x00
01C9           1015   L006001?:
01C9 BE04B8    1016            cjne    r6,#0x04,L006018?
01CC           1017   L006018?:
01CC 5000      1018            jnc     L006007?
01CE 7582FA    1019            mov     dpl,#0xFA
01D1 C002      1020            push    ar2
01D3 C003      1021            push    ar3
01D5 C004      1022            push    ar4
01D7 C005      1023            push    ar5
01D9 C006      1024            push    ar6
01DB 120000    1025            lcall   _Timer3us
01DE D006      1026            pop     ar6
01E0 D005      1027            pop     ar5
01E2 D004      1028            pop     ar4
01E4 D003      1029            pop     ar3
01E6 D002      1030            pop     ar2
01E8 0E        1031            inc     r6
01E9 8000      1032            sjmp    L006001?
01EB           1033   L006007?:
01EB           1034   ;        C:\Vincent\source\tramsitterStopwatch.c:229: for (j = 0; j < ms; j++)
01EB 0C        1035            inc     r4
01EC BC00F8    1036            cjne    r4,#0x00,L006005?
01EF 0D        1037            inc     r5
01F0 8000      1038            sjmp    L006005?
01F2           1039   L006009?:
01F2 22        1040            ret
01F3           1041   ;------------------------------------------------------------
01F3           1042   ;Allocation info for local variables in function 'InitPinADC'
01F3           1043   ;------------------------------------------------------------
01F3           1044   ;pin_num                   Allocated with name '_InitPinADC_PARM_2'
01F3           1045   ;portno                    Allocated to registers r2 
01F3           1046   ;mask                      Allocated to registers r3 
01F3           1047   ;------------------------------------------------------------
01F3           1048   ;        C:\Vincent\source\tramsitterStopwatch.c:233: void InitPinADC(unsigned char portno, unsigned char pin_num)
01F3           1049   ;        -----------------------------------------
01F3           1050   ;         function InitPinADC
01F3           1051   ;        -----------------------------------------
01F3           1052   _InitPinADC:
01F3 AA82      1053            mov     r2,dpl
01F5           1054   ;        C:\Vincent\source\tramsitterStopwatch.c:235: unsigned char mask = 1 << pin_num;
01F5 85C8F0    1055            mov     b,_InitPinADC_PARM_2
01F8 05F0      1056            inc     b
01FA 7401      1057            mov     a,#0x01
01FC 8000      1058            sjmp    L007013?
01FE           1059   L007011?:
01FE 25E0      1060            add     a,acc
0200           1061   L007013?:
0200 D5F078    1062            djnz    b,L007011?
0203 FB        1063            mov     r3,a
0204           1064   ;        C:\Vincent\source\tramsitterStopwatch.c:236: SFRPAGE = 0x20;
0204 75A720    1065            mov     _SFRPAGE,#0x20
0207           1066   ;        C:\Vincent\source\tramsitterStopwatch.c:237: switch (portno) {
0207 BA00B8    1067            cjne    r2,#0x00,L007014?
020A 8000      1068            sjmp    L007001?
020C           1069   L007014?:
020C BA0138    1070            cjne    r2,#0x01,L007015?
020F 8000      1071            sjmp    L007002?
0211           1072   L007015?:
0211           1073   ;        C:\Vincent\source\tramsitterStopwatch.c:238: case 0: P0MDIN &= ~mask; P0SKIP |= mask; break;
0211 BA02B8    1074            cjne    r2,#0x02,L007005?
0214 8000      1075            sjmp    L007003?
0216           1076   L007001?:
0216 EB        1077            mov     a,r3
0217 F4        1078            cpl     a
0218 FA        1079            mov     r2,a
0219 52F1      1080            anl     _P0MDIN,a
021B EB        1081            mov     a,r3
021C 42D4      1082            orl     _P0SKIP,a
021E           1083   ;        C:\Vincent\source\tramsitterStopwatch.c:239: case 1: P1MDIN &= ~mask; P1SKIP |= mask; break;
021E 8000      1084            sjmp    L007005?
0220           1085   L007002?:
0220 EB        1086            mov     a,r3
0221 F4        1087            cpl     a
0222 FA        1088            mov     r2,a
0223 52F2      1089            anl     _P1MDIN,a
0225 EB        1090            mov     a,r3
0226 42D5      1091            orl     _P1SKIP,a
0228           1092   ;        C:\Vincent\source\tramsitterStopwatch.c:240: case 2: P2MDIN &= ~mask; P2SKIP |= mask; break;
0228 8000      1093            sjmp    L007005?
022A           1094   L007003?:
022A EB        1095            mov     a,r3
022B F4        1096            cpl     a
022C FA        1097            mov     r2,a
022D 52F3      1098            anl     _P2MDIN,a
022F EB        1099            mov     a,r3
0230 42CC      1100            orl     _P2SKIP,a
0232           1101   ;        C:\Vincent\source\tramsitterStopwatch.c:242: }
0232           1102   L007005?:
0232           1103   ;        C:\Vincent\source\tramsitterStopwatch.c:243: SFRPAGE = 0x00;
0232 75A700    1104            mov     _SFRPAGE,#0x00
0235 22        1105            ret
0236           1106   ;------------------------------------------------------------
0236           1107   ;Allocation info for local variables in function 'InitADC'
0236           1108   ;------------------------------------------------------------
0236           1109   ;------------------------------------------------------------
0236           1110   ;        C:\Vincent\source\tramsitterStopwatch.c:246: void InitADC(void)
0236           1111   ;        -----------------------------------------
0236           1112   ;         function InitADC
0236           1113   ;        -----------------------------------------
0236           1114   _InitADC:
0236           1115   ;        C:\Vincent\source\tramsitterStopwatch.c:248: SFRPAGE = 0x00;
0236 75A700    1116            mov     _SFRPAGE,#0x00
0239           1117   ;        C:\Vincent\source\tramsitterStopwatch.c:249: ADEN = 0;
0239 C2EF      1118            clr     _ADEN
023B           1119   ;        C:\Vincent\source\tramsitterStopwatch.c:250: ADC0CN1 = (0x2 << 6) | (0x0 << 3) | (0x0 << 0);
023B 75B280    1120            mov     _ADC0CN1,#0x80
023E           1121   ;        C:\Vincent\source\tramsitterStopwatch.c:251: ADC0CF0 = ((SYSCLK / SARCLK) << 3) | (0x0 << 2);
023E 75BC20    1122            mov     _ADC0CF0,#0x20
0241           1123   ;        C:\Vincent\source\tramsitterStopwatch.c:252: ADC0CF1 = (0 << 7) | (0x1E << 0);
0241 75B91E    1124            mov     _ADC0CF1,#0x1E
0244           1125   ;        C:\Vincent\source\tramsitterStopwatch.c:253: ADC0CN0 = 0x00;
0244 75E800    1126            mov     _ADC0CN0,#0x00
0247           1127   ;        C:\Vincent\source\tramsitterStopwatch.c:254: ADC0CF2 = (0x0 << 7) | (0x1 << 5) | (0x1F << 0);
0247 75DF3F    1128            mov     _ADC0CF2,#0x3F
024A           1129   ;        C:\Vincent\source\tramsitterStopwatch.c:255: ADC0CN2 = 0x00;
024A 75B300    1130            mov     _ADC0CN2,#0x00
024D           1131   ;        C:\Vincent\source\tramsitterStopwatch.c:256: ADEN = 1;
024D D2EF      1132            setb    _ADEN
024F 22        1133            ret
0250           1134   ;------------------------------------------------------------
0250           1135   ;Allocation info for local variables in function 'ADC_at_Pin'
0250           1136   ;------------------------------------------------------------
0250           1137   ;pin                       Allocated to registers 
0250           1138   ;------------------------------------------------------------
0250           1139   ;        C:\Vincent\source\tramsitterStopwatch.c:259: unsigned int ADC_at_Pin(unsigned char pin)
0250           1140   ;        -----------------------------------------
0250           1141   ;         function ADC_at_Pin
0250           1142   ;        -----------------------------------------
0250           1143   _ADC_at_Pin:
0250 8582BB    1144            mov     _ADC0MX,dpl
0253           1145   ;        C:\Vincent\source\tramsitterStopwatch.c:262: ADINT  = 0;
0253 C2ED      1146            clr     _ADINT
0255           1147   ;        C:\Vincent\source\tramsitterStopwatch.c:263: ADBUSY = 1;     
0255 D2EC      1148            setb    _ADBUSY
0257           1149   ;        C:\Vincent\source\tramsitterStopwatch.c:264: while (!ADINT); // Wait for first conversion (throw-away)
0257           1150   L009001?:
0257           1151   ;        C:\Vincent\source\tramsitterStopwatch.c:266: ADINT  = 0;
0257 10ED78    1152            jbc     _ADINT,L009013?
025A 8000      1153            sjmp    L009001?
025C           1154   L009013?:
025C           1155   ;        C:\Vincent\source\tramsitterStopwatch.c:267: ADBUSY = 1;     
025C D2EC      1156            setb    _ADBUSY
025E           1157   ;        C:\Vincent\source\tramsitterStopwatch.c:268: while (!ADINT); // Wait for second conversion (actual value)
025E           1158   L009004?:
025E 30EDB8    1159            jnb     _ADINT,L009004?
0261           1160   ;        C:\Vincent\source\tramsitterStopwatch.c:269: return ADC0;
0261 85BD82    1161            mov     dpl,_ADC0
0264 85BE83    1162            mov     dph,(_ADC0 >> 8)
0267 22        1163            ret
0268           1164   ;------------------------------------------------------------
0268           1165   ;Allocation info for local variables in function 'Get_Battery_Percent'
0268           1166   ;------------------------------------------------------------
0268           1167   ;batt_adc                  Allocated to registers r2 r3 
0268           1168   ;pin_mv                    Allocated to registers 
0268           1169   ;V_battery_mv              Allocated to registers r2 r3 r4 r5 
0268           1170   ;battery_percent           Allocated to registers r2 r3 r4 r5 
0268           1171   ;------------------------------------------------------------
0268           1172   ;        C:\Vincent\source\tramsitterStopwatch.c:272: unsigned char Get_Battery_Percent(void)
0268           1173   ;        -----------------------------------------
0268           1174   ;         function Get_Battery_Percent
0268           1175   ;        -----------------------------------------
0268           1176   _Get_Battery_Percent:
0268           1177   ;        C:\Vincent\source\tramsitterStopwatch.c:280: ADC_at_Pin(BATT_CH);
0268 75820C    1178            mov     dpl,#0x0C
026B 120000    1179            lcall   _ADC_at_Pin
026E           1180   ;        C:\Vincent\source\tramsitterStopwatch.c:281: batt_adc = ADC_at_Pin(BATT_CH);
026E 75820C    1181            mov     dpl,#0x0C
0271 120000    1182            lcall   _ADC_at_Pin
0274 AA82      1183            mov     r2,dpl
0276 AB83      1184            mov     r3,dph
0278           1185   ;        C:\Vincent\source\tramsitterStopwatch.c:283: if (batt_adc == 0) return 0;
0278 EA        1186            mov     a,r2
0279 4B        1187            orl     a,r3
027A 7000      1188            jnz     L010002?
027C F582      1189            mov     dpl,a
027E 22        1190            ret
027F           1191   L010002?:
027F           1192   ;        C:\Vincent\source\tramsitterStopwatch.c:286: pin_mv = ((unsigned long)batt_adc * 1700UL) / 8191UL;
027F 8A00      1193            mov     __mullong_PARM_2,r2
0281 8B01      1194            mov     (__mullong_PARM_2 + 1),r3
0283 750200    1195            mov     (__mullong_PARM_2 + 2),#0x00
0286 750300    1196            mov     (__mullong_PARM_2 + 3),#0x00
0289 9006A4    1197            mov     dptr,#0x06A4
028C E4        1198            clr     a
028D F5F0      1199            mov     b,a
028F 120000    1200            lcall   __mullong
0292 7500FF    1201            mov     __divulong_PARM_2,#0xFF
0295 75011F    1202            mov     (__divulong_PARM_2 + 1),#0x1F
0298 750200    1203            mov     (__divulong_PARM_2 + 2),#0x00
029B 750300    1204            mov     (__divulong_PARM_2 + 3),#0x00
029E 120000    1205            lcall   __divulong
02A1 858200    1206            mov     __mullong_PARM_2,dpl
02A4 858301    1207            mov     (__mullong_PARM_2 + 1),dph
02A7 85F002    1208            mov     (__mullong_PARM_2 + 2),b
02AA F503      1209            mov     (__mullong_PARM_2 + 3),a
02AC           1210   ;        C:\Vincent\source\tramsitterStopwatch.c:289: V_battery_mv = pin_mv * 11UL;
02AC 90000B    1211            mov     dptr,#(0x0B&0x00ff)
02AF E4        1212            clr     a
02B0 F5F0      1213            mov     b,a
02B2 120000    1214            lcall   __mullong
02B5 AA82      1215            mov     r2,dpl
02B7 AB83      1216            mov     r3,dph
02B9 ACF0      1217            mov     r4,b
02BB FD        1218            mov     r5,a
02BC           1219   ;        C:\Vincent\source\tramsitterStopwatch.c:292: if (V_battery_mv >= 9000UL) return 100;
02BC C3        1220            clr     c
02BD EA        1221            mov     a,r2
02BE 9428      1222            subb    a,#0x28
02C0 EB        1223            mov     a,r3
02C1 9423      1224            subb    a,#0x23
02C3 EC        1225            mov     a,r4
02C4 9400      1226            subb    a,#0x00
02C6 ED        1227            mov     a,r5
02C7 9400      1228            subb    a,#0x00
02C9 4000      1229            jc      L010004?
02CB 758264    1230            mov     dpl,#0x64
02CE 22        1231            ret
02CF           1232   L010004?:
02CF           1233   ;        C:\Vincent\source\tramsitterStopwatch.c:293: if (V_battery_mv <= 5000UL) return 0;
02CF C3        1234            clr     c
02D0 7488      1235            mov     a,#0x88
02D2 9A        1236            subb    a,r2
02D3 7413      1237            mov     a,#0x13
02D5 9B        1238            subb    a,r3
02D6 E4        1239            clr     a
02D7 9C        1240            subb    a,r4
02D8 E4        1241            clr     a
02D9 9D        1242            subb    a,r5
02DA 4000      1243            jc      L010006?
02DC 758200    1244            mov     dpl,#0x00
02DF 22        1245            ret
02E0           1246   L010006?:
02E0           1247   ;        C:\Vincent\source\tramsitterStopwatch.c:296: battery_percent = ((V_battery_mv - 5000UL) * 100UL) / 4000UL;
02E0 EA        1248            mov     a,r2
02E1 2478      1249            add     a,#0x78
02E3 F500      1250            mov     __mullong_PARM_2,a
02E5 EB        1251            mov     a,r3
02E6 34EC      1252            addc    a,#0xec
02E8 F501      1253            mov     (__mullong_PARM_2 + 1),a
02EA EC        1254            mov     a,r4
02EB 34FF      1255            addc    a,#0xff
02ED F502      1256            mov     (__mullong_PARM_2 + 2),a
02EF ED        1257            mov     a,r5
02F0 34FF      1258            addc    a,#0xff
02F2 F503      1259            mov     (__mullong_PARM_2 + 3),a
02F4 900064    1260            mov     dptr,#(0x64&0x00ff)
02F7 E4        1261            clr     a
02F8 F5F0      1262            mov     b,a
02FA 120000    1263            lcall   __mullong
02FD 7500A0    1264            mov     __divulong_PARM_2,#0xA0
0300 75010F    1265            mov     (__divulong_PARM_2 + 1),#0x0F
0303 750200    1266            mov     (__divulong_PARM_2 + 2),#0x00
0306 750300    1267            mov     (__divulong_PARM_2 + 3),#0x00
0309           1268   ;        C:\Vincent\source\tramsitterStopwatch.c:298: return (unsigned char)battery_percent;
0309 020000    1269            ljmp    __divulong
030C           1270   ;------------------------------------------------------------
030C           1271   ;Allocation info for local variables in function 'LCD_pulse'
030C           1272   ;------------------------------------------------------------
030C           1273   ;------------------------------------------------------------
030C           1274   ;        C:\Vincent\source\tramsitterStopwatch.c:301: void LCD_pulse(void) { LCD_E=1; Timer3us(40); LCD_E=0; }
030C           1275   ;        -----------------------------------------
030C           1276   ;         function LCD_pulse
030C           1277   ;        -----------------------------------------
030C           1278   _LCD_pulse:
030C D2A0      1279            setb    _P2_0
030E 758228    1280            mov     dpl,#0x28
0311 120000    1281            lcall   _Timer3us
0314 C2A0      1282            clr     _P2_0
0316 22        1283            ret
0317           1284   ;------------------------------------------------------------
0317           1285   ;Allocation info for local variables in function 'LCD_byte'
0317           1286   ;------------------------------------------------------------
0317           1287   ;x                         Allocated to registers r2 
0317           1288   ;------------------------------------------------------------
0317           1289   ;        C:\Vincent\source\tramsitterStopwatch.c:303: void LCD_byte(unsigned char x)
0317           1290   ;        -----------------------------------------
0317           1291   ;         function LCD_byte
0317           1292   ;        -----------------------------------------
0317           1293   _LCD_byte:
0317 AA82      1294            mov     r2,dpl
0319           1295   ;        C:\Vincent\source\tramsitterStopwatch.c:305: ACC=x;
0319 8AE0      1296            mov     _ACC,r2
031B           1297   ;        C:\Vincent\source\tramsitterStopwatch.c:306: LCD_D7=ACC_7; LCD_D6=ACC_6; LCD_D5=ACC_5; LCD_D4=ACC_4;
031B A2E7      1298            mov     c,_ACC_7
031D 9290      1299            mov     _P1_0,c
031F A2E6      1300            mov     c,_ACC_6
0321 9291      1301            mov     _P1_1,c
0323 A2E5      1302            mov     c,_ACC_5
0325 9292      1303            mov     _P1_2,c
0327 A2E4      1304            mov     c,_ACC_4
0329 9293      1305            mov     _P1_3,c
032B           1306   ;        C:\Vincent\source\tramsitterStopwatch.c:307: LCD_pulse(); Timer3us(40);
032B C002      1307            push    ar2
032D 120000    1308            lcall   _LCD_pulse
0330 758228    1309            mov     dpl,#0x28
0333 120000    1310            lcall   _Timer3us
0336 D002      1311            pop     ar2
0338           1312   ;        C:\Vincent\source\tramsitterStopwatch.c:308: ACC=x;
0338 8AE0      1313            mov     _ACC,r2
033A           1314   ;        C:\Vincent\source\tramsitterStopwatch.c:309: LCD_D7=ACC_3; LCD_D6=ACC_2; LCD_D5=ACC_1; LCD_D4=ACC_0;
033A A2E3      1315            mov     c,_ACC_3
033C 9290      1316            mov     _P1_0,c
033E A2E2      1317            mov     c,_ACC_2
0340 9291      1318            mov     _P1_1,c
0342 A2E1      1319            mov     c,_ACC_1
0344 9292      1320            mov     _P1_2,c
0346 A2E0      1321            mov     c,_ACC_0
0348 9293      1322            mov     _P1_3,c
034A           1323   ;        C:\Vincent\source\tramsitterStopwatch.c:310: LCD_pulse();
034A 020000    1324            ljmp    _LCD_pulse
034D           1325   ;------------------------------------------------------------
034D           1326   ;Allocation info for local variables in function 'WriteData'
034D           1327   ;------------------------------------------------------------
034D           1328   ;x                         Allocated to registers 
034D           1329   ;------------------------------------------------------------
034D           1330   ;        C:\Vincent\source\tramsitterStopwatch.c:313: void WriteData(unsigned char x)    { LCD_RS=1; LCD_byte(x); waitms(2); }
034D           1331   ;        -----------------------------------------
034D           1332   ;         function WriteData
034D           1333   ;        -----------------------------------------
034D           1334   _WriteData:
034D D297      1335            setb    _P1_7
034F 120000    1336            lcall   _LCD_byte
0352 900002    1337            mov     dptr,#0x0002
0355 020000    1338            ljmp    _waitms
0358           1339   ;------------------------------------------------------------
0358           1340   ;Allocation info for local variables in function 'WriteCommand'
0358           1341   ;------------------------------------------------------------
0358           1342   ;x                         Allocated to registers 
0358           1343   ;------------------------------------------------------------
0358           1344   ;        C:\Vincent\source\tramsitterStopwatch.c:314: void WriteCommand(unsigned char x) { LCD_RS=0; LCD_byte(x); waitms(5); }
0358           1345   ;        -----------------------------------------
0358           1346   ;         function WriteCommand
0358           1347   ;        -----------------------------------------
0358           1348   _WriteCommand:
0358 C297      1349            clr     _P1_7
035A 120000    1350            lcall   _LCD_byte
035D 900005    1351            mov     dptr,#0x0005
0360 020000    1352            ljmp    _waitms
0363           1353   ;------------------------------------------------------------
0363           1354   ;Allocation info for local variables in function 'LCD_4BIT'
0363           1355   ;------------------------------------------------------------
0363           1356   ;------------------------------------------------------------
0363           1357   ;        C:\Vincent\source\tramsitterStopwatch.c:316: void LCD_4BIT(void)
0363           1358   ;        -----------------------------------------
0363           1359   ;         function LCD_4BIT
0363           1360   ;        -----------------------------------------
0363           1361   _LCD_4BIT:
0363           1362   ;        C:\Vincent\source\tramsitterStopwatch.c:318: LCD_E=0; waitms(20);
0363 C2A0      1363            clr     _P2_0
0365 900014    1364            mov     dptr,#0x0014
0368 120000    1365            lcall   _waitms
036B           1366   ;        C:\Vincent\source\tramsitterStopwatch.c:319: WriteCommand(0x33); WriteCommand(0x33); WriteCommand(0x32);
036B 758233    1367            mov     dpl,#0x33
036E 120000    1368            lcall   _WriteCommand
0371 758233    1369            mov     dpl,#0x33
0374 120000    1370            lcall   _WriteCommand
0377 758232    1371            mov     dpl,#0x32
037A 120000    1372            lcall   _WriteCommand
037D           1373   ;        C:\Vincent\source\tramsitterStopwatch.c:320: WriteCommand(0x28); WriteCommand(0x0C); WriteCommand(0x01);
037D 758228    1374            mov     dpl,#0x28
0380 120000    1375            lcall   _WriteCommand
0383 75820C    1376            mov     dpl,#0x0C
0386 120000    1377            lcall   _WriteCommand
0389 758201    1378            mov     dpl,#0x01
038C 120000    1379            lcall   _WriteCommand
038F           1380   ;        C:\Vincent\source\tramsitterStopwatch.c:321: waitms(20);
038F 900014    1381            mov     dptr,#0x0014
0392 020000    1382            ljmp    _waitms
0395           1383   ;------------------------------------------------------------
0395           1384   ;Allocation info for local variables in function 'LCDprint'
0395           1385   ;------------------------------------------------------------
0395           1386   ;line                      Allocated with name '_LCDprint_PARM_2'
0395           1387   ;s                         Allocated to registers r2 r3 r4 
0395           1388   ;j                         Allocated to registers r5 r6 
0395           1389   ;------------------------------------------------------------
0395           1390   ;        C:\Vincent\source\tramsitterStopwatch.c:324: void LCDprint(char *s, unsigned char line, bit clear)
0395           1391   ;        -----------------------------------------
0395           1392   ;         function LCDprint
0395           1393   ;        -----------------------------------------
0395           1394   _LCDprint:
0395 AA82      1395            mov     r2,dpl
0397 AB83      1396            mov     r3,dph
0399 ACF0      1397            mov     r4,b
039B           1398   ;        C:\Vincent\source\tramsitterStopwatch.c:327: WriteCommand(line==2 ? 0xC0 : 0x80);
039B 7402      1399            mov     a,#0x02
039D B508D8    1400            cjne    a,_LCDprint_PARM_2,L016013?
03A0 7DC0      1401            mov     r5,#0xC0
03A2 8000      1402            sjmp    L016014?
03A4           1403   L016013?:
03A4 7D80      1404            mov     r5,#0x80
03A6           1405   L016014?:
03A6 8D82      1406            mov     dpl,r5
03A8 C002      1407            push    ar2
03AA C003      1408            push    ar3
03AC C004      1409            push    ar4
03AE 120000    1410            lcall   _WriteCommand
03B1           1411   ;        C:\Vincent\source\tramsitterStopwatch.c:328: waitms(5);
03B1 900005    1412            mov     dptr,#0x0005
03B4 120000    1413            lcall   _waitms
03B7 D004      1414            pop     ar4
03B9 D003      1415            pop     ar3
03BB D002      1416            pop     ar2
03BD           1417   ;        C:\Vincent\source\tramsitterStopwatch.c:329: for (j=0; s[j]!=0; j++) WriteData(s[j]);
03BD 7D00      1418            mov     r5,#0x00
03BF 7E00      1419            mov     r6,#0x00
03C1           1420   L016003?:
03C1 ED        1421            mov     a,r5
03C2 2A        1422            add     a,r2
03C3 FF        1423            mov     r7,a
03C4 EE        1424            mov     a,r6
03C5 3B        1425            addc    a,r3
03C6 F8        1426            mov     r0,a
03C7 8C01      1427            mov     ar1,r4
03C9 8F82      1428            mov     dpl,r7
03CB 8883      1429            mov     dph,r0
03CD 89F0      1430            mov     b,r1
03CF 120000    1431            lcall   __gptrget
03D2 FF        1432            mov     r7,a
03D3 6000      1433            jz      L016006?
03D5 8F82      1434            mov     dpl,r7
03D7 C002      1435            push    ar2
03D9 C003      1436            push    ar3
03DB C004      1437            push    ar4
03DD C005      1438            push    ar5
03DF C006      1439            push    ar6
03E1 120000    1440            lcall   _WriteData
03E4 D006      1441            pop     ar6
03E6 D005      1442            pop     ar5
03E8 D004      1443            pop     ar4
03EA D003      1444            pop     ar3
03EC D002      1445            pop     ar2
03EE 0D        1446            inc     r5
03EF BD0058    1447            cjne    r5,#0x00,L016003?
03F2 0E        1448            inc     r6
03F3 8000      1449            sjmp    L016003?
03F5           1450   L016006?:
03F5           1451   ;        C:\Vincent\source\tramsitterStopwatch.c:330: if (clear) for (; j<CHARS_PER_LINE; j++) WriteData(' ');
03F5 306818    1452            jnb     _LCDprint_PARM_3,L016011?
03F8 8D02      1453            mov     ar2,r5
03FA 8E03      1454            mov     ar3,r6
03FC           1455   L016007?:
03FC C3        1456            clr     c
03FD EA        1457            mov     a,r2
03FE 9410      1458            subb    a,#0x10
0400 EB        1459            mov     a,r3
0401 6480      1460            xrl     a,#0x80
0403 9480      1461            subb    a,#0x80
0405 5000      1462            jnc     L016011?
0407 758220    1463            mov     dpl,#0x20
040A C002      1464            push    ar2
040C C003      1465            push    ar3
040E 120000    1466            lcall   _WriteData
0411 D003      1467            pop     ar3
0413 D002      1468            pop     ar2
0415 0A        1469            inc     r2
0416 BA0058    1470            cjne    r2,#0x00,L016007?
0419 0B        1471            inc     r3
041A 8000      1472            sjmp    L016007?
041C           1473   L016011?:
041C 22        1474            ret
041D           1475   ;------------------------------------------------------------
041D           1476   ;Allocation info for local variables in function 'IR_HalfPeriod'
041D           1477   ;------------------------------------------------------------
041D           1478   ;------------------------------------------------------------
041D           1479   ;        C:\Vincent\source\tramsitterStopwatch.c:333: void IR_HalfPeriod(bit is_space)
041D           1480   ;        -----------------------------------------
041D           1481   ;         function IR_HalfPeriod
041D           1482   ;        -----------------------------------------
041D           1483   _IR_HalfPeriod:
041D           1484   ;        C:\Vincent\source\tramsitterStopwatch.c:335: if (is_space) IR_TX ^= 1;
041D 301898    1485            jnb     _IR_HalfPeriod_PARM_1,L017002?
0420 B294      1486            cpl     _P1_4
0422 8000      1487            sjmp    L017003?
0424           1488   L017002?:
0424           1489   ;        C:\Vincent\source\tramsitterStopwatch.c:336: else          IR_TX  = 0;
0424 C294      1490            clr     _P1_4
0426           1491   L017003?:
0426           1492   ;        C:\Vincent\source\tramsitterStopwatch.c:337: Timer3us(IR_HALF_US);
0426 75820D    1493            mov     dpl,#0x0D
0429 020000    1494            ljmp    _Timer3us
042C           1495   ;------------------------------------------------------------
042C           1496   ;Allocation info for local variables in function 'IR_LoopbackByte'
042C           1497   ;------------------------------------------------------------
042C           1498   ;tx_byte                   Allocated to registers r2 
042C           1499   ;rx_byte                   Allocated to registers r3 
042C           1500   ;i                         Allocated to registers r4 
042C           1501   ;h                         Allocated to registers r4 
042C           1502   ;------------------------------------------------------------
042C           1503   ;        C:\Vincent\source\tramsitterStopwatch.c:340: unsigned char IR_LoopbackByte(unsigned char tx_byte)
042C           1504   ;        -----------------------------------------
042C           1505   ;         function IR_LoopbackByte
042C           1506   ;        -----------------------------------------
042C           1507   _IR_LoopbackByte:
042C AA82      1508            mov     r2,dpl
042E           1509   ;        C:\Vincent\source\tramsitterStopwatch.c:342: unsigned char rx_byte = 0;
042E 7B00      1510            mov     r3,#0x00
0430           1511   ;        C:\Vincent\source\tramsitterStopwatch.c:346: for (h=0; h<IR_HALF_FULL; h++) IR_HalfPeriod(1);
0430 7C00      1512            mov     r4,#0x00
0432           1513   L018003?:
0432 BC2058    1514            cjne    r4,#0x20,L018041?
0435           1515   L018041?:
0435 5000      1516            jnc     L018006?
0437 D218      1517            setb    _IR_HalfPeriod_PARM_1
0439 C002      1518            push    ar2
043B C003      1519            push    ar3
043D C004      1520            push    ar4
043F 120000    1521            lcall   _IR_HalfPeriod
0442 D004      1522            pop     ar4
0444 D003      1523            pop     ar3
0446 D002      1524            pop     ar2
0448 0C        1525            inc     r4
0449 8000      1526            sjmp    L018003?
044B           1527   L018006?:
044B           1528   ;        C:\Vincent\source\tramsitterStopwatch.c:347: IR_TX = 0;
044B C294      1529            clr     _P1_4
044D           1530   ;        C:\Vincent\source\tramsitterStopwatch.c:349: for (i=0; i<8; i++)
044D 7C00      1531            mov     r4,#0x00
044F           1532   L018015?:
044F BC0818    1533            cjne    r4,#0x08,L018043?
0452           1534   L018043?:
0452 5000      1535            jnc     L018018?
0454           1536   ;        C:\Vincent\source\tramsitterStopwatch.c:351: is_space = ((tx_byte & 0x01) == 0) ? 1 : 0;
0454 7401      1537            mov     a,#0x01
0456 5A        1538            anl     a,r2
0457 FD        1539            mov     r5,a
0458 B40198    1540            cjne    a,#0x01,L018045?
045B           1541   L018045?:
045B 9278      1542            mov     _IR_LoopbackByte_is_space_1_105,c
045D           1543   ;        C:\Vincent\source\tramsitterStopwatch.c:352: tx_byte >>= 1;
045D EA        1544            mov     a,r2
045E C3        1545            clr     c
045F 13        1546            rrc     a
0460 FA        1547            mov     r2,a
0461           1548   ;        C:\Vincent\source\tramsitterStopwatch.c:353: rx_byte >>= 1;
0461 EB        1549            mov     a,r3
0462 C3        1550            clr     c
0463 13        1551            rrc     a
0464 FB        1552            mov     r3,a
0465           1553   ;        C:\Vincent\source\tramsitterStopwatch.c:355: for (h=0; h<IR_HALF_MID; h++) IR_HalfPeriod(is_space);
0465 7D00      1554            mov     r5,#0x00
0467           1555   L018007?:
0467 BD1018    1556            cjne    r5,#0x10,L018046?
046A           1557   L018046?:
046A 5000      1558            jnc     L018010?
046C A278      1559            mov     c,_IR_LoopbackByte_is_space_1_105
046E 9218      1560            mov     _IR_HalfPeriod_PARM_1,c
0470 C002      1561            push    ar2
0472 C003      1562            push    ar3
0474 C004      1563            push    ar4
0476 C005      1564            push    ar5
0478 120000    1565            lcall   _IR_HalfPeriod
047B D005      1566            pop     ar5
047D D004      1567            pop     ar4
047F D003      1568            pop     ar3
0481 D002      1569            pop     ar2
0483 0D        1570            inc     r5
0484 8000      1571            sjmp    L018007?
0486           1572   L018010?:
0486           1573   ;        C:\Vincent\source\tramsitterStopwatch.c:356: IR_TX = 0;
0486 C294      1574            clr     _P1_4
0488           1575   ;        C:\Vincent\source\tramsitterStopwatch.c:357: if (IR_RX == 1) rx_byte |= 0x80;
0488 309598    1576            jnb     _P1_5,L018032?
048B 430380    1577            orl     ar3,#0x80
048E           1578   ;        C:\Vincent\source\tramsitterStopwatch.c:359: for (h=0; h<IR_HALF_MID; h++) IR_HalfPeriod(is_space);
048E           1579   L018032?:
048E 7D00      1580            mov     r5,#0x00
0490           1581   L018011?:
0490 BD1018    1582            cjne    r5,#0x10,L018049?
0493           1583   L018049?:
0493 5000      1584            jnc     L018014?
0495 A278      1585            mov     c,_IR_LoopbackByte_is_space_1_105
0497 9218      1586            mov     _IR_HalfPeriod_PARM_1,c
0499 C002      1587            push    ar2
049B C003      1588            push    ar3
049D C004      1589            push    ar4
049F C005      1590            push    ar5
04A1 120000    1591            lcall   _IR_HalfPeriod
04A4 D005      1592            pop     ar5
04A6 D004      1593            pop     ar4
04A8 D003      1594            pop     ar3
04AA D002      1595            pop     ar2
04AC 0D        1596            inc     r5
04AD 8000      1597            sjmp    L018011?
04AF           1598   L018014?:
04AF           1599   ;        C:\Vincent\source\tramsitterStopwatch.c:360: IR_TX = 0;
04AF C294      1600            clr     _P1_4
04B1           1601   ;        C:\Vincent\source\tramsitterStopwatch.c:349: for (i=0; i<8; i++)
04B1 0C        1602            inc     r4
04B2 8000      1603            sjmp    L018015?
04B4           1604   L018018?:
04B4           1605   ;        C:\Vincent\source\tramsitterStopwatch.c:363: for (h=0; h<IR_HALF_FULL; h++) IR_HalfPeriod(0);
04B4 7A00      1606            mov     r2,#0x00
04B6           1607   L018019?:
04B6 BA20D8    1608            cjne    r2,#0x20,L018051?
04B9           1609   L018051?:
04B9 5000      1610            jnc     L018022?
04BB C218      1611            clr     _IR_HalfPeriod_PARM_1
04BD C002      1612            push    ar2
04BF C003      1613            push    ar3
04C1 120000    1614            lcall   _IR_HalfPeriod
04C4 D003      1615            pop     ar3
04C6 D002      1616            pop     ar2
04C8 0A        1617            inc     r2
04C9 8000      1618            sjmp    L018019?
04CB           1619   L018022?:
04CB           1620   ;        C:\Vincent\source\tramsitterStopwatch.c:364: IR_TX = 0;
04CB C294      1621            clr     _P1_4
04CD           1622   ;        C:\Vincent\source\tramsitterStopwatch.c:366: return rx_byte;
04CD 8B82      1623            mov     dpl,r3
04CF 22        1624            ret
04D0           1625   ;------------------------------------------------------------
04D0           1626   ;Allocation info for local variables in function 'IR_LoopbackPacket'
04D0           1627   ;------------------------------------------------------------
04D0           1628   ;cmd                       Allocated to registers r2 
04D0           1629   ;rx_cmd                    Allocated to registers r4 
04D0           1630   ;rx_chk                    Allocated to registers r5 
04D0           1631   ;expected_chk              Allocated to registers r3 
04D0           1632   ;------------------------------------------------------------
04D0           1633   ;        C:\Vincent\source\tramsitterStopwatch.c:369: unsigned char IR_LoopbackPacket(unsigned char cmd)
04D0           1634   ;        -----------------------------------------
04D0           1635   ;         function IR_LoopbackPacket
04D0           1636   ;        -----------------------------------------
04D0           1637   _IR_LoopbackPacket:
04D0 AA82      1638            mov     r2,dpl
04D2           1639   ;        C:\Vincent\source\tramsitterStopwatch.c:372: unsigned char expected_chk = (unsigned char)(0xFF - cmd);
04D2 74FF      1640            mov     a,#0xFF
04D4 C3        1641            clr     c
04D5 9A        1642            subb    a,r2
04D6 FB        1643            mov     r3,a
04D7           1644   ;        C:\Vincent\source\tramsitterStopwatch.c:373: rx_cmd = IR_LoopbackByte(cmd);
04D7 8A82      1645            mov     dpl,r2
04D9 C002      1646            push    ar2
04DB C003      1647            push    ar3
04DD 120000    1648            lcall   _IR_LoopbackByte
04E0 AC82      1649            mov     r4,dpl
04E2 D003      1650            pop     ar3
04E4           1651   ;        C:\Vincent\source\tramsitterStopwatch.c:374: rx_chk = IR_LoopbackByte(expected_chk);
04E4 8B82      1652            mov     dpl,r3
04E6 C003      1653            push    ar3
04E8 C004      1654            push    ar4
04EA 120000    1655            lcall   _IR_LoopbackByte
04ED AD82      1656            mov     r5,dpl
04EF D004      1657            pop     ar4
04F1 D003      1658            pop     ar3
04F3 D002      1659            pop     ar2
04F5           1660   ;        C:\Vincent\source\tramsitterStopwatch.c:375: IR_TX = 0;
04F5 C294      1661            clr     _P1_4
04F7           1662   ;        C:\Vincent\source\tramsitterStopwatch.c:376: if (rx_cmd == cmd && rx_chk == expected_chk) return rx_cmd;
04F7 EC        1663            mov     a,r4
04F8 B50258    1664            cjne    a,ar2,L019002?
04FB ED        1665            mov     a,r5
04FC B50358    1666            cjne    a,ar3,L019002?
04FF 8C82      1667            mov     dpl,r4
0501           1668   ;        C:\Vincent\source\tramsitterStopwatch.c:377: return CMD_NONE;
0501 22        1669            ret
0502           1670   L019002?:
0502 7582FF    1671            mov     dpl,#0xFF
0505 22        1672            ret
0506           1673   ;------------------------------------------------------------
0506           1674   ;Allocation info for local variables in function 'Update_Status_Line'
0506           1675   ;------------------------------------------------------------
0506           1676   ;s                         Allocated with name '_Update_Status_Line_s_1_110'
0506           1677   ;------------------------------------------------------------
0506           1678   ;        C:\Vincent\source\tramsitterStopwatch.c:380: void Update_Status_Line(void)
0506           1679   ;        -----------------------------------------
0506           1680   ;         function Update_Status_Line
0506           1681   ;        -----------------------------------------
0506           1682   _Update_Status_Line:
0506           1683   ;        C:\Vincent\source\tramsitterStopwatch.c:383: if (auto_mode) strncpy(s, "AUTO   || ", 10);
0506 30A898    1684            jnb     _auto_mode,L020002?
0509 750018    1685            mov     _strncpy_PARM_2,#__str_0
050C 7501D1    1686            mov     (_strncpy_PARM_2 + 1),#(__str_0 >> 8)
050F 750280    1687            mov     (_strncpy_PARM_2 + 2),#0x80
0512 75000A    1688            mov     _strncpy_PARM_3,#0x0A
0515 E4        1689            clr     a
0516 F501      1690            mov     (_strncpy_PARM_3 + 1),a
0518 90B9B8    1691            mov     dptr,#_Update_Status_Line_s_1_110
051B 75F040    1692            mov     b,#0x40
051E 120000    1693            lcall   _strncpy
0521 8000      1694            sjmp    L020003?
0523           1695   L020002?:
0523           1696   ;        C:\Vincent\source\tramsitterStopwatch.c:384: else           strncpy(s, "MANUAL || ", 10);
0523 750018    1697            mov     _strncpy_PARM_2,#__str_1
0526 7501D2    1698            mov     (_strncpy_PARM_2 + 1),#(__str_1 >> 8)
0529 750280    1699            mov     (_strncpy_PARM_2 + 2),#0x80
052C 75000A    1700            mov     _strncpy_PARM_3,#0x0A
052F E4        1701            clr     a
0530 F501      1702            mov     (_strncpy_PARM_3 + 1),a
0532 90B9B8    1703            mov     dptr,#_Update_Status_Line_s_1_110
0535 75F040    1704            mov     b,#0x40
0538 120000    1705            lcall   _strncpy
053B           1706   L020003?:
053B           1707   ;        C:\Vincent\source\tramsitterStopwatch.c:385: s[10]='P'; s[11]='A'; s[12]='T'; s[13]='H'; s[14]=':';
053B 75C250    1708            mov     (_Update_Status_Line_s_1_110 + 0x000a),#0x50
053E 75C341    1709            mov     (_Update_Status_Line_s_1_110 + 0x000b),#0x41
0541 75C454    1710            mov     (_Update_Status_Line_s_1_110 + 0x000c),#0x54
0544 75C548    1711            mov     (_Update_Status_Line_s_1_110 + 0x000d),#0x48
0547 75C63A    1712            mov     (_Update_Status_Line_s_1_110 + 0x000e),#0x3A
054A           1713   ;        C:\Vincent\source\tramsitterStopwatch.c:386: s[15]='0'+current_path;
054A 7430      1714            mov     a,#0x30
054C 2548      1715            add     a,_current_path
054E F5C7      1716            mov     (_Update_Status_Line_s_1_110 + 0x000f),a
0550           1717   ;        C:\Vincent\source\tramsitterStopwatch.c:387: s[16]=0;
0550 75C800    1718            mov     (_Update_Status_Line_s_1_110 + 0x0010),#0x00
0553           1719   ;        C:\Vincent\source\tramsitterStopwatch.c:388: LCDprint(s, 2, 0);
0553 750802    1720            mov     _LCDprint_PARM_2,#0x02
0556 C268      1721            clr     _LCDprint_PARM_3
0558 90B9B8    1722            mov     dptr,#_Update_Status_Line_s_1_110
055B 75F040    1723            mov     b,#0x40
055E 020000    1724            ljmp    _LCDprint
0561           1725   ;------------------------------------------------------------
0561           1726   ;Allocation info for local variables in function 'Read_Joystick'
0561           1727   ;------------------------------------------------------------
0561           1728   ;urx                       Allocated to registers r2 r3 
0561           1729   ;ury                       Allocated to registers r4 r5 
0561           1730   ;------------------------------------------------------------
0561           1731   ;        C:\Vincent\source\tramsitterStopwatch.c:391: unsigned char Read_Joystick(void)
0561           1732   ;        -----------------------------------------
0561           1733   ;         function Read_Joystick
0561           1734   ;        -----------------------------------------
0561           1735   _Read_Joystick:
0561           1736   ;        C:\Vincent\source\tramsitterStopwatch.c:393: unsigned int urx = ADC_at_Pin(JOY_URX_CH);
0561 75820E    1737            mov     dpl,#0x0E
0564 120000    1738            lcall   _ADC_at_Pin
0567 AA82      1739            mov     r2,dpl
0569 AB83      1740            mov     r3,dph
056B           1741   ;        C:\Vincent\source\tramsitterStopwatch.c:394: unsigned int ury = ADC_at_Pin(JOY_URY_CH);
056B 75820F    1742            mov     dpl,#0x0F
056E C002      1743            push    ar2
0570 C003      1744            push    ar3
0572 120000    1745            lcall   _ADC_at_Pin
0575 AC82      1746            mov     r4,dpl
0577 AD83      1747            mov     r5,dph
0579 D003      1748            pop     ar3
057B D002      1749            pop     ar2
057D           1750   ;        C:\Vincent\source\tramsitterStopwatch.c:395: if      (urx > JOY_HIGH) return CMD_RIGHT;
057D C3        1751            clr     c
057E 7428      1752            mov     a,#0x28
0580 9A        1753            subb    a,r2
0581 7423      1754            mov     a,#0x23
0583 9B        1755            subb    a,r3
0584 5000      1756            jnc     L021011?
0586 758205    1757            mov     dpl,#0x05
0589 22        1758            ret
058A           1759   L021011?:
058A           1760   ;        C:\Vincent\source\tramsitterStopwatch.c:396: else if (urx < JOY_LOW)  return CMD_LEFT;
058A C3        1761            clr     c
058B EA        1762            mov     a,r2
058C 94B8      1763            subb    a,#0xB8
058E EB        1764            mov     a,r3
058F 940B      1765            subb    a,#0x0B
0591 5000      1766            jnc     L021008?
0593 758204    1767            mov     dpl,#0x04
0596 22        1768            ret
0597           1769   L021008?:
0597           1770   ;        C:\Vincent\source\tramsitterStopwatch.c:397: else if (ury < JOY_LOW)  return CMD_FORWARD;
0597 C3        1771            clr     c
0598 EC        1772            mov     a,r4
0599 94B8      1773            subb    a,#0xB8
059B ED        1774            mov     a,r5
059C 940B      1775            subb    a,#0x0B
059E 5000      1776            jnc     L021005?
05A0 758202    1777            mov     dpl,#0x02
05A3 22        1778            ret
05A4           1779   L021005?:
05A4           1780   ;        C:\Vincent\source\tramsitterStopwatch.c:398: else if (ury > JOY_HIGH) return CMD_BACKWARD;
05A4 C3        1781            clr     c
05A5 7428      1782            mov     a,#0x28
05A7 9C        1783            subb    a,r4
05A8 7423      1784            mov     a,#0x23
05AA 9D        1785            subb    a,r5
05AB 5000      1786            jnc     L021002?
05AD 758203    1787            mov     dpl,#0x03
05B0           1788   ;        C:\Vincent\source\tramsitterStopwatch.c:399: else                     return CMD_STOP;
05B0 22        1789            ret
05B1           1790   L021002?:
05B1 758201    1791            mov     dpl,#0x01
05B4 22        1792            ret
05B5           1793   ;------------------------------------------------------------
05B5           1794   ;Allocation info for local variables in function 'Cmd_Label'
05B5           1795   ;------------------------------------------------------------
05B5           1796   ;cmd                       Allocated to registers r2 
05B5           1797   ;------------------------------------------------------------
05B5           1798   ;        C:\Vincent\source\tramsitterStopwatch.c:403: const char *Cmd_Label(unsigned char cmd)
05B5           1799   ;        -----------------------------------------
05B5           1800   ;         function Cmd_Label
05B5           1801   ;        -----------------------------------------
05B5           1802   _Cmd_Label:
05B5 AA82      1803            mov     r2,dpl
05B7           1804   ;        C:\Vincent\source\tramsitterStopwatch.c:405: switch (cmd) {
05B7 BA0158    1805            cjne    r2,#0x01,L022035?
05BA 8000      1806            sjmp    L022001?
05BC           1807   L022035?:
05BC BA02D8    1808            cjne    r2,#0x02,L022036?
05BF 8000      1809            sjmp    L022002?
05C1           1810   L022036?:
05C1 BA0358    1811            cjne    r2,#0x03,L022037?
05C4 8000      1812            sjmp    L022003?
05C6           1813   L022037?:
05C6 BA04D8    1814            cjne    r2,#0x04,L022038?
05C9 8000      1815            sjmp    L022004?
05CB           1816   L022038?:
05CB BA0558    1817            cjne    r2,#0x05,L022039?
05CE 8000      1818            sjmp    L022005?
05D0           1819   L022039?:
05D0 BA06D8    1820            cjne    r2,#0x06,L022040?
05D3 8000      1821            sjmp    L022006?
05D5           1822   L022040?:
05D5 BA1058    1823            cjne    r2,#0x10,L022041?
05D8 8000      1824            sjmp    L022007?
05DA           1825   L022041?:
05DA BA11D8    1826            cjne    r2,#0x11,L022042?
05DD 020000    1827            ljmp    L022008?
05E0           1828   L022042?:
05E0 BA1258    1829            cjne    r2,#0x12,L022043?
05E3 020000    1830            ljmp    L022009?
05E6           1831   L022043?:
05E6 BA13D8    1832            cjne    r2,#0x13,L022044?
05E9 020000    1833            ljmp    L022010?
05EC           1834   L022044?:
05EC BA2058    1835            cjne    r2,#0x20,L022045?
05EF 020000    1836            ljmp    L022015?
05F2           1837   L022045?:
05F2 BA30D8    1838            cjne    r2,#0x30,L022046?
05F5 020000    1839            ljmp    L022011?
05F8           1840   L022046?:
05F8 BA3158    1841            cjne    r2,#0x31,L022047?
05FB 020000    1842            ljmp    L022012?
05FE           1843   L022047?:
05FE BA40D8    1844            cjne    r2,#0x40,L022048?
0601 020000    1845            ljmp    L022013?
0604           1846   L022048?:
0604 BA4158    1847            cjne    r2,#0x41,L022049?
0607 020000    1848            ljmp    L022014?
060A           1849   L022049?:
060A 020000    1850            ljmp    L022016?
060D           1851   ;        C:\Vincent\source\tramsitterStopwatch.c:406: case CMD_STOP:       return "STOP    ";
060D           1852   L022001?:
060D 90DB18    1853            mov     dptr,#__str_2
0610 75F080    1854            mov     b,#0x80
0613 22        1855            ret
0614           1856   ;        C:\Vincent\source\tramsitterStopwatch.c:407: case CMD_FORWARD:    return "FORWARD  ";
0614           1857   L022002?:
0614 90DB58    1858            mov     dptr,#__str_3
0617 75F080    1859            mov     b,#0x80
061A 22        1860            ret
061B           1861   ;        C:\Vincent\source\tramsitterStopwatch.c:408: case CMD_BACKWARD:   return "BACKWARD ";
061B           1862   L022003?:
061B 90DB98    1863            mov     dptr,#__str_4
061E 75F080    1864            mov     b,#0x80
0621 22        1865            ret
0622           1866   ;        C:\Vincent\source\tramsitterStopwatch.c:409: case CMD_LEFT:       return "LEFT     ";
0622           1867   L022004?:
0622 90DBD8    1868            mov     dptr,#__str_5
0625 75F080    1869            mov     b,#0x80
0628 22        1870            ret
0629           1871   ;        C:\Vincent\source\tramsitterStopwatch.c:410: case CMD_RIGHT:      return "RIGHT    ";
0629           1872   L022005?:
0629 90DC18    1873            mov     dptr,#__str_6
062C 75F080    1874            mov     b,#0x80
062F 22        1875            ret
0630           1876   ;        C:\Vincent\source\tramsitterStopwatch.c:411: case CMD_ROTATE_180: return "ROT 180  ";
0630           1877   L022006?:
0630 90DC58    1878            mov     dptr,#__str_7
0633 75F080    1879            mov     b,#0x80
0636           1880   ;        C:\Vincent\source\tramsitterStopwatch.c:412: case CMD_PATH_1:     return "PATH  1  ";
0636 22        1881            ret
0637           1882   L022007?:
0637 90DC98    1883            mov     dptr,#__str_8
063A 75F080    1884            mov     b,#0x80
063D           1885   ;        C:\Vincent\source\tramsitterStopwatch.c:413: case CMD_PATH_2:     return "PATH  2  ";
063D 22        1886            ret
063E           1887   L022008?:
063E 90DCD8    1888            mov     dptr,#__str_9
0641 75F080    1889            mov     b,#0x80
0644           1890   ;        C:\Vincent\source\tramsitterStopwatch.c:414: case CMD_PATH_3:     return "PATH  3  ";
0644 22        1891            ret
0645           1892   L022009?:
0645 90DD18    1893            mov     dptr,#__str_10
0648 75F080    1894            mov     b,#0x80
064B           1895   ;        C:\Vincent\source\tramsitterStopwatch.c:415: case CMD_PATH_4:     return "PATH  4  ";  // NEW
064B 22        1896            ret
064C           1897   L022010?:
064C 90DD58    1898            mov     dptr,#__str_11
064F 75F080    1899            mov     b,#0x80
0652           1900   ;        C:\Vincent\source\tramsitterStopwatch.c:416: case CMD_AUTO_START: return "AUTO  ON ";
0652 22        1901            ret
0653           1902   L022011?:
0653 90DD98    1903            mov     dptr,#__str_12
0656 75F080    1904            mov     b,#0x80
0659           1905   ;        C:\Vincent\source\tramsitterStopwatch.c:417: case CMD_AUTO_STOP:  return "AUTO OFF ";
0659 22        1906            ret
065A           1907   L022012?:
065A 90DDD8    1908            mov     dptr,#__str_13
065D 75F080    1909            mov     b,#0x80
0660           1910   ;        C:\Vincent\source\tramsitterStopwatch.c:418: case CMD_PAUSE:      return "PAUSED   ";
0660 22        1911            ret
0661           1912   L022013?:
0661 90DE18    1913            mov     dptr,#__str_14
0664 75F080    1914            mov     b,#0x80
0667           1915   ;        C:\Vincent\source\tramsitterStopwatch.c:419: case CMD_RESUME:     return "RESUMING ";
0667 22        1916            ret
0668           1917   L022014?:
0668 90DE58    1918            mov     dptr,#__str_15
066B 75F080    1919            mov     b,#0x80
066E           1920   ;        C:\Vincent\source\tramsitterStopwatch.c:420: case CMD_HORN:       return "HORN!!   ";
066E 22        1921            ret
066F           1922   L022015?:
066F 90DE98    1923            mov     dptr,#__str_16
0672 75F080    1924            mov     b,#0x80
0675           1925   ;        C:\Vincent\source\tramsitterStopwatch.c:421: default:             return "???      ";
0675 22        1926            ret
0676           1927   L022016?:
0676 90DED8    1928            mov     dptr,#__str_17
0679 75F080    1929            mov     b,#0x80
067C           1930   ;        C:\Vincent\source\tramsitterStopwatch.c:422: }
067C 22        1931            ret
067D           1932   ;------------------------------------------------------------
067D           1933   ;Allocation info for local variables in function 'Direction_Label'
067D           1934   ;------------------------------------------------------------
067D           1935   ;dir                       Allocated to registers r2 
067D           1936   ;------------------------------------------------------------
067D           1937   ;        C:\Vincent\source\tramsitterStopwatch.c:426: const char *Direction_Label(unsigned char dir)
067D           1938   ;        -----------------------------------------
067D           1939   ;         function Direction_Label
067D           1940   ;        -----------------------------------------
067D           1941   _Direction_Label:
067D           1942   ;        C:\Vincent\source\tramsitterStopwatch.c:428: switch (dir) {
067D E582      1943            mov     a,dpl
067F FA        1944            mov     r2,a
0680 24FC      1945            add     a,#0xff - 0x03
0682 4000      1946            jc      L023005?
0684 EA        1947            mov     a,r2
0685 2A        1948            add     a,r2
0686 2A        1949            add     a,r2
0687 90DF58    1950            mov     dptr,#L023011?
068A 73        1951            jmp     @a+dptr
068B           1952   L023011?:
068B 020000    1953            ljmp    L023001?
068E 020000    1954            ljmp    L023002?
0691 020000    1955            ljmp    L023003?
0694 020000    1956            ljmp    L023004?
0697           1957   ;        C:\Vincent\source\tramsitterStopwatch.c:429: case 0: return "FORWARD ";
0697           1958   L023001?:
0697 90E098    1959            mov     dptr,#__str_18
069A 75F080    1960            mov     b,#0x80
069D           1961   ;        C:\Vincent\source\tramsitterStopwatch.c:430: case 1: return "LEFT    ";
069D 22        1962            ret
069E           1963   L023002?:
069E 90E0D8    1964            mov     dptr,#__str_19
06A1 75F080    1965            mov     b,#0x80
06A4           1966   ;        C:\Vincent\source\tramsitterStopwatch.c:431: case 2: return "RIGHT   ";
06A4 22        1967            ret
06A5           1968   L023003?:
06A5 90E118    1969            mov     dptr,#__str_20
06A8 75F080    1970            mov     b,#0x80
06AB           1971   ;        C:\Vincent\source\tramsitterStopwatch.c:432: case 3: return "STOP    ";
06AB 22        1972            ret
06AC           1973   L023004?:
06AC 90DB18    1974            mov     dptr,#__str_2
06AF 75F080    1975            mov     b,#0x80
06B2           1976   ;        C:\Vincent\source\tramsitterStopwatch.c:433: default: return "???     ";
06B2 22        1977            ret
06B3           1978   L023005?:
06B3 90E158    1979            mov     dptr,#__str_21
06B6 75F080    1980            mov     b,#0x80
06B9           1981   ;        C:\Vincent\source\tramsitterStopwatch.c:434: }
06B9 22        1982            ret
06BA           1983   ;------------------------------------------------------------
06BA           1984   ;Allocation info for local variables in function 'Show_Command'
06BA           1985   ;------------------------------------------------------------
06BA           1986   ;cmd                       Allocated to registers 
06BA           1987   ;raw_adc                   Allocated to registers 
06BA           1988   ;pin_mv                    Allocated to registers 
06BA           1989   ;battery_mv                Allocated to registers 
06BA           1990   ;percent                   Allocated to registers r5 
06BA           1991   ;label                     Allocated to registers r2 r3 r4 
06BA           1992   ;i                         Allocated to registers r6 
06BA           1993   ;line                      Allocated with name '_Show_Command_line_1_120'
06BA           1994   ;------------------------------------------------------------
06BA           1995   ;        C:\Vincent\source\tramsitterStopwatch.c:437: void Show_Command(unsigned char cmd)
06BA           1996   ;        -----------------------------------------
06BA           1997   ;         function Show_Command
06BA           1998   ;        -----------------------------------------
06BA           1999   _Show_Command:
06BA           2000   ;        C:\Vincent\source\tramsitterStopwatch.c:442: const char *label = Cmd_Label(cmd);
06BA 120000    2001            lcall   _Cmd_Label
06BD AA82      2002            mov     r2,dpl
06BF AB83      2003            mov     r3,dph
06C1 ACF0      2004            mov     r4,b
06C3           2005   ;        C:\Vincent\source\tramsitterStopwatch.c:446: raw_adc = ADC_at_Pin(BATT_CH);
06C3 75820C    2006            mov     dpl,#0x0C
06C6 C002      2007            push    ar2
06C8 C003      2008            push    ar3
06CA C004      2009            push    ar4
06CC 120000    2010            lcall   _ADC_at_Pin
06CF           2011   ;        C:\Vincent\source\tramsitterStopwatch.c:447: percent = Get_Battery_Percent();
06CF 120000    2012            lcall   _Get_Battery_Percent
06D2 AD82      2013            mov     r5,dpl
06D4 D004      2014            pop     ar4
06D6 D003      2015            pop     ar3
06D8 D002      2016            pop     ar2
06DA           2017   ;        C:\Vincent\source\tramsitterStopwatch.c:454: for(i=0; i<16; i++) line[i] = ' ';
06DA 7E00      2018            mov     r6,#0x00
06DC           2019   L024004?:
06DC BE10D8    2020            cjne    r6,#0x10,L024023?
06DF           2021   L024023?:
06DF 5000      2022            jnc     L024007?
06E1 EE        2023            mov     a,r6
06E2 24C8      2024            add     a,#_Show_Command_line_1_120
06E4 F582      2025            mov     dpl,a
06E6 E4        2026            clr     a
06E7 34BC      2027            addc    a,#(_Show_Command_line_1_120 >> 8)
06E9 F583      2028            mov     dph,a
06EB 7420      2029            mov     a,#0x20
06ED F0        2030            movx    @dptr,a
06EE 0E        2031            inc     r6
06EF 8000      2032            sjmp    L024004?
06F1           2033   L024007?:
06F1           2034   ;        C:\Vincent\source\tramsitterStopwatch.c:455: line[16] = 0;
06F1 90BCD8    2035            mov     dptr,#(_Show_Command_line_1_120 + 0x0010)
06F4 E4        2036            clr     a
06F5 F0        2037            movx    @dptr,a
06F6           2038   ;        C:\Vincent\source\tramsitterStopwatch.c:458: for(i=0; i<8 && label[i] != 0; i++) {
06F6 7E00      2039            mov     r6,#0x00
06F8           2040   L024009?:
06F8 BE0898    2041            cjne    r6,#0x08,L024025?
06FB           2042   L024025?:
06FB 5000      2043            jnc     L024012?
06FD EE        2044            mov     a,r6
06FE 2A        2045            add     a,r2
06FF FF        2046            mov     r7,a
0700 E4        2047            clr     a
0701 3B        2048            addc    a,r3
0702 F8        2049            mov     r0,a
0703 8C01      2050            mov     ar1,r4
0705 8F82      2051            mov     dpl,r7
0707 8883      2052            mov     dph,r0
0709 89F0      2053            mov     b,r1
070B 120000    2054            lcall   __gptrget
070E FF        2055            mov     r7,a
070F 6000      2056            jz      L024012?
0711           2057   ;        C:\Vincent\source\tramsitterStopwatch.c:459: line[i] = label[i];
0711 EE        2058            mov     a,r6
0712 24C8      2059            add     a,#_Show_Command_line_1_120
0714 F582      2060            mov     dpl,a
0716 E4        2061            clr     a
0717 34BC      2062            addc    a,#(_Show_Command_line_1_120 >> 8)
0719 F583      2063            mov     dph,a
071B EF        2064            mov     a,r7
071C F0        2065            movx    @dptr,a
071D           2066   ;        C:\Vincent\source\tramsitterStopwatch.c:458: for(i=0; i<8 && label[i] != 0; i++) {
071D 0E        2067            inc     r6
071E 8000      2068            sjmp    L024009?
0720           2069   L024012?:
0720           2070   ;        C:\Vincent\source\tramsitterStopwatch.c:463: line[11] = 'B';
0720 90BCD3    2071            mov     dptr,#(_Show_Command_line_1_120 + 0x000b)
0723 7442      2072            mov     a,#0x42
0725 F0        2073            movx    @dptr,a
0726           2074   ;        C:\Vincent\source\tramsitterStopwatch.c:464: line[12] = ':';
0726 90BCD4    2075            mov     dptr,#(_Show_Command_line_1_120 + 0x000c)
0729 743A      2076            mov     a,#0x3A
072B F0        2077            movx    @dptr,a
072C           2078   ;        C:\Vincent\source\tramsitterStopwatch.c:465: if (percent >= 100) {
072C BD6418    2079            cjne    r5,#0x64,L024028?
072F           2080   L024028?:
072F 4000      2081            jc      L024002?
0731           2082   ;        C:\Vincent\source\tramsitterStopwatch.c:466: line[13] = '1'; line[14] = '0'; line[15] = '0';
0731 90BCD5    2083            mov     dptr,#(_Show_Command_line_1_120 + 0x000d)
0734 7431      2084            mov     a,#0x31
0736 F0        2085            movx    @dptr,a
0737 90BCD6    2086            mov     dptr,#(_Show_Command_line_1_120 + 0x000e)
073A 7430      2087            mov     a,#0x30
073C F0        2088            movx    @dptr,a
073D 90BCD7    2089            mov     dptr,#(_Show_Command_line_1_120 + 0x000f)
0740 7430      2090            mov     a,#0x30
0742 F0        2091            movx    @dptr,a
0743 8000      2092            sjmp    L024003?
0745           2093   L024002?:
0745           2094   ;        C:\Vincent\source\tramsitterStopwatch.c:468: line[13] = ' ';
0745 90BCD5    2095            mov     dptr,#(_Show_Command_line_1_120 + 0x000d)
0748 7420      2096            mov     a,#0x20
074A F0        2097            movx    @dptr,a
074B           2098   ;        C:\Vincent\source\tramsitterStopwatch.c:469: line[14] = (percent / 10) + '0';
074B 75F00A    2099            mov     b,#0x0A
074E ED        2100            mov     a,r5
074F 84        2101            div     ab
0750 2430      2102            add     a,#0x30
0752 90BCD6    2103            mov     dptr,#(_Show_Command_line_1_120 + 0x000e)
0755 F0        2104            movx    @dptr,a
0756           2105   ;        C:\Vincent\source\tramsitterStopwatch.c:470: line[15] = (percent % 10) + '0';
0756 75F00A    2106            mov     b,#0x0A
0759 ED        2107            mov     a,r5
075A 84        2108            div     ab
075B E5F0      2109            mov     a,b
075D 2430      2110            add     a,#0x30
075F FA        2111            mov     r2,a
0760 90BCD7    2112            mov     dptr,#(_Show_Command_line_1_120 + 0x000f)
0763 F0        2113            movx    @dptr,a
0764           2114   L024003?:
0764           2115   ;        C:\Vincent\source\tramsitterStopwatch.c:472: LCDprint(line, 1, 1);
0764 750801    2116            mov     _LCDprint_PARM_2,#0x01
0767 D268      2117            setb    _LCDprint_PARM_3
0769 90BCC8    2118            mov     dptr,#_Show_Command_line_1_120
076C 75F000    2119            mov     b,#0x00
076F 020000    2120            ljmp    _LCDprint
0772           2121   ;------------------------------------------------------------
0772           2122   ;Allocation info for local variables in function 'Send_Joystick_Proportional'
0772           2123   ;------------------------------------------------------------
0772           2124   ;urx                       Allocated to registers r2 r3 
0772           2125   ;ury                       Allocated to registers r4 r5 
0772           2126   ;base                      Allocated to registers r6 r7 
0772           2127   ;turn                      Allocated to registers r4 r5 
0772           2128   ;lv                        Allocated to registers r2 r3 
0772           2129   ;rv                        Allocated to registers r4 r5 
0772           2130   ;lb                        Allocated with name '_Send_Joystick_Proportional_lb_1_125'
0772           2131   ;rb                        Allocated to registers r1 
0772           2132   ;chk                       Allocated to registers r7 
0772           2133   ;percent                   Allocated with name '_Send_Joystick_Proportional_percent_1_125'
0772           2134   ;sloc0                     Allocated with name '_Send_Joystick_Proportional_sloc0_1_0'
0772           2135   ;disp                      Allocated with name '_Send_Joystick_Proportional_disp_1_125'
0772           2136   ;------------------------------------------------------------
0772           2137   ;        C:\Vincent\source\tramsitterStopwatch.c:477: void Send_Joystick_Proportional(void)
0772           2138   ;        -----------------------------------------
0772           2139   ;         function Send_Joystick_Proportional
0772           2140   ;        -----------------------------------------
0772           2141   _Send_Joystick_Proportional:
0772           2142   ;        C:\Vincent\source\tramsitterStopwatch.c:485: urx = ADC_at_Pin(JOY_URX_CH);
0772 75820E    2143            mov     dpl,#0x0E
0775 120000    2144            lcall   _ADC_at_Pin
0778 AA82      2145            mov     r2,dpl
077A AB83      2146            mov     r3,dph
077C           2147   ;        C:\Vincent\source\tramsitterStopwatch.c:486: ury = ADC_at_Pin(JOY_URY_CH);
077C 75820F    2148            mov     dpl,#0x0F
077F C002      2149            push    ar2
0781 C003      2150            push    ar3
0783 120000    2151            lcall   _ADC_at_Pin
0786 AC82      2152            mov     r4,dpl
0788 AD83      2153            mov     r5,dph
078A D003      2154            pop     ar3
078C D002      2155            pop     ar2
078E           2156   ;        C:\Vincent\source\tramsitterStopwatch.c:489: if (ury > (JOY_MID + JOY_DEAD)) {
078E C3        2157            clr     c
078F 74C2      2158            mov     a,#0xC2
0791 9C        2159            subb    a,r4
0792 7415      2160            mov     a,#0x15
0794 9D        2161            subb    a,r5
0795 5000      2162            jnc     L025009?
0797           2163   ;        C:\Vincent\source\tramsitterStopwatch.c:490: base = (int)((long)(ury - JOY_MID - JOY_DEAD) * 100L / (long)FWD_RANGE);
0797 EC        2164            mov     a,r4
0798 243E      2165            add     a,#0x3e
079A FE        2166            mov     r6,a
079B ED        2167            mov     a,r5
079C 34EA      2168            addc    a,#0xea
079E FF        2169            mov     r7,a
079F 8E00      2170            mov     __mullong_PARM_2,r6
07A1 8F01      2171            mov     (__mullong_PARM_2 + 1),r7
07A3 750200    2172            mov     (__mullong_PARM_2 + 2),#0x00
07A6 750300    2173            mov     (__mullong_PARM_2 + 3),#0x00
07A9 900064    2174            mov     dptr,#(0x64&0x00ff)
07AC E4        2175            clr     a
07AD F5F0      2176            mov     b,a
07AF C002      2177            push    ar2
07B1 C003      2178            push    ar3
07B3 120000    2179            lcall   __mullong
07B6 75002E    2180            mov     __divslong_PARM_2,#0x2E
07B9 75010E    2181            mov     (__divslong_PARM_2 + 1),#0x0E
07BC 750200    2182            mov     (__divslong_PARM_2 + 2),#0x00
07BF 750300    2183            mov     (__divslong_PARM_2 + 3),#0x00
07C2 120000    2184            lcall   __divslong
07C5 AE82      2185            mov     r6,dpl
07C7 AF83      2186            mov     r7,dph
07C9 A8F0      2187            mov     r0,b
07CB F9        2188            mov     r1,a
07CC D003      2189            pop     ar3
07CE D002      2190            pop     ar2
07D0           2191   ;        C:\Vincent\source\tramsitterStopwatch.c:491: if (base > 100) base = 100;
07D0 C3        2192            clr     c
07D1 7464      2193            mov     a,#0x64
07D3 9E        2194            subb    a,r6
07D4 E4        2195            clr     a
07D5 6480      2196            xrl     a,#0x80
07D7 8FF0      2197            mov     b,r7
07D9 63F080    2198            xrl     b,#0x80
07DC 95F0      2199            subb    a,b
07DE 5000      2200            jnc     L025010?
07E0 7E64      2201            mov     r6,#0x64
07E2 7F00      2202            mov     r7,#0x00
07E4 8000      2203            sjmp    L025010?
07E6           2204   L025009?:
07E6           2205   ;        C:\Vincent\source\tramsitterStopwatch.c:492: } else if (ury < (JOY_MID - JOY_DEAD)) {
07E6 C3        2206            clr     c
07E7 EC        2207            mov     a,r4
07E8 94DA      2208            subb    a,#0xDA
07EA ED        2209            mov     a,r5
07EB 9411      2210            subb    a,#0x11
07ED 5000      2211            jnc     L025006?
07EF           2212   ;        C:\Vincent\source\tramsitterStopwatch.c:493: base = -(int)((long)(JOY_MID - JOY_DEAD - ury) * 100L / (long)BWD_RANGE);
07EF 74DA      2213            mov     a,#0xDA
07F1 C3        2214            clr     c
07F2 9C        2215            subb    a,r4
07F3 FC        2216            mov     r4,a
07F4 7411      2217            mov     a,#0x11
07F6 9D        2218            subb    a,r5
07F7 FD        2219            mov     r5,a
07F8 8C00      2220            mov     __mullong_PARM_2,r4
07FA 8D01      2221            mov     (__mullong_PARM_2 + 1),r5
07FC 750200    2222            mov     (__mullong_PARM_2 + 2),#0x00
07FF 750300    2223            mov     (__mullong_PARM_2 + 3),#0x00
0802 900064    2224            mov     dptr,#(0x64&0x00ff)
0805 E4        2225            clr     a
0806 F5F0      2226            mov     b,a
0808 C002      2227            push    ar2
080A C003      2228            push    ar3
080C 120000    2229            lcall   __mullong
080F 750056    2230            mov     __divslong_PARM_2,#0x56
0812 75010E    2231            mov     (__divslong_PARM_2 + 1),#0x0E
0815 750200    2232            mov     (__divslong_PARM_2 + 2),#0x00
0818 750300    2233            mov     (__divslong_PARM_2 + 3),#0x00
081B 120000    2234            lcall   __divslong
081E AC82      2235            mov     r4,dpl
0820 AD83      2236            mov     r5,dph
0822 A8F0      2237            mov     r0,b
0824 F9        2238            mov     r1,a
0825 D003      2239            pop     ar3
0827 D002      2240            pop     ar2
0829 C3        2241            clr     c
082A E4        2242            clr     a
082B 9C        2243            subb    a,r4
082C FE        2244            mov     r6,a
082D E4        2245            clr     a
082E 9D        2246            subb    a,r5
082F FF        2247            mov     r7,a
0830           2248   ;        C:\Vincent\source\tramsitterStopwatch.c:494: if (base < -100) base = -100;
0830 C3        2249            clr     c
0831 EE        2250            mov     a,r6
0832 949C      2251            subb    a,#0x9C
0834 EF        2252            mov     a,r7
0835 6480      2253            xrl     a,#0x80
0837 947F      2254            subb    a,#0x7f
0839 5000      2255            jnc     L025010?
083B 7E9C      2256            mov     r6,#0x9C
083D 7FFF      2257            mov     r7,#0xFF
083F 8000      2258            sjmp    L025010?
0841           2259   L025006?:
0841           2260   ;        C:\Vincent\source\tramsitterStopwatch.c:496: base = 0;
0841 7E00      2261            mov     r6,#0x00
0843 7F00      2262            mov     r7,#0x00
0845           2263   L025010?:
0845           2264   ;        C:\Vincent\source\tramsitterStopwatch.c:499: if (urx > (JOY_MID + JOY_DEAD)) {
0845 C3        2265            clr     c
0846 74C2      2266            mov     a,#0xC2
0848 9A        2267            subb    a,r2
0849 7415      2268            mov     a,#0x15
084B 9B        2269            subb    a,r3
084C 5000      2270            jnc     L025019?
084E           2271   ;        C:\Vincent\source\tramsitterStopwatch.c:500: turn = (int)((long)(urx - JOY_MID - JOY_DEAD) * 50L / (long)TURN_MAX);
084E EA        2272            mov     a,r2
084F 243E      2273            add     a,#0x3e
0851 FC        2274            mov     r4,a
0852 EB        2275            mov     a,r3
0853 34EA      2276            addc    a,#0xea
0855 FD        2277            mov     r5,a
0856 8C00      2278            mov     __mullong_PARM_2,r4
0858 8D01      2279            mov     (__mullong_PARM_2 + 1),r5
085A 750200    2280            mov     (__mullong_PARM_2 + 2),#0x00
085D 750300    2281            mov     (__mullong_PARM_2 + 3),#0x00
0860 900032    2282            mov     dptr,#(0x32&0x00ff)
0863 E4        2283            clr     a
0864 F5F0      2284            mov     b,a
0866 C006      2285            push    ar6
0868 C007      2286            push    ar7
086A 120000    2287            lcall   __mullong
086D 75002E    2288            mov     __divslong_PARM_2,#0x2E
0870 75010E    2289            mov     (__divslong_PARM_2 + 1),#0x0E
0873 750200    2290            mov     (__divslong_PARM_2 + 2),#0x00
0876 750300    2291            mov     (__divslong_PARM_2 + 3),#0x00
0879 120000    2292            lcall   __divslong
087C AC82      2293            mov     r4,dpl
087E AD83      2294            mov     r5,dph
0880 A8F0      2295            mov     r0,b
0882 F9        2296            mov     r1,a
0883 D007      2297            pop     ar7
0885 D006      2298            pop     ar6
0887           2299   ;        C:\Vincent\source\tramsitterStopwatch.c:501: if (turn > 50) turn = 50;
0887 C3        2300            clr     c
0888 7432      2301            mov     a,#0x32
088A 9C        2302            subb    a,r4
088B E4        2303            clr     a
088C 6480      2304            xrl     a,#0x80
088E 8DF0      2305            mov     b,r5
0890 63F080    2306            xrl     b,#0x80
0893 95F0      2307            subb    a,b
0895 5000      2308            jnc     L025020?
0897 7C32      2309            mov     r4,#0x32
0899 7D00      2310            mov     r5,#0x00
089B 8000      2311            sjmp    L025020?
089D           2312   L025019?:
089D           2313   ;        C:\Vincent\source\tramsitterStopwatch.c:502: } else if (urx < (JOY_MID - JOY_DEAD)) {
089D C3        2314            clr     c
089E EA        2315            mov     a,r2
089F 94DA      2316            subb    a,#0xDA
08A1 EB        2317            mov     a,r3
08A2 9411      2318            subb    a,#0x11
08A4 5000      2319            jnc     L025016?
08A6           2320   ;        C:\Vincent\source\tramsitterStopwatch.c:503: turn = -(int)((long)(JOY_MID - JOY_DEAD - urx) * 50L / (long)TURN_MAX);
08A6 74DA      2321            mov     a,#0xDA
08A8 C3        2322            clr     c
08A9 9A        2323            subb    a,r2
08AA FA        2324            mov     r2,a
08AB 7411      2325            mov     a,#0x11
08AD 9B        2326            subb    a,r3
08AE FB        2327            mov     r3,a
08AF 8A00      2328            mov     __mullong_PARM_2,r2
08B1 8B01      2329            mov     (__mullong_PARM_2 + 1),r3
08B3 750200    2330            mov     (__mullong_PARM_2 + 2),#0x00
08B6 750300    2331            mov     (__mullong_PARM_2 + 3),#0x00
08B9 900032    2332            mov     dptr,#(0x32&0x00ff)
08BC E4        2333            clr     a
08BD F5F0      2334            mov     b,a
08BF C006      2335            push    ar6
08C1 C007      2336            push    ar7
08C3 120000    2337            lcall   __mullong
08C6 75002E    2338            mov     __divslong_PARM_2,#0x2E
08C9 75010E    2339            mov     (__divslong_PARM_2 + 1),#0x0E
08CC 750200    2340            mov     (__divslong_PARM_2 + 2),#0x00
08CF 750300    2341            mov     (__divslong_PARM_2 + 3),#0x00
08D2 120000    2342            lcall   __divslong
08D5 AA82      2343            mov     r2,dpl
08D7 AB83      2344            mov     r3,dph
08D9 A8F0      2345            mov     r0,b
08DB F9        2346            mov     r1,a
08DC D007      2347            pop     ar7
08DE D006      2348            pop     ar6
08E0 C3        2349            clr     c
08E1 E4        2350            clr     a
08E2 9A        2351            subb    a,r2
08E3 FC        2352            mov     r4,a
08E4 E4        2353            clr     a
08E5 9B        2354            subb    a,r3
08E6 FD        2355            mov     r5,a
08E7           2356   ;        C:\Vincent\source\tramsitterStopwatch.c:504: if (turn < -50) turn = -50;
08E7 C3        2357            clr     c
08E8 EC        2358            mov     a,r4
08E9 94CE      2359            subb    a,#0xCE
08EB ED        2360            mov     a,r5
08EC 6480      2361            xrl     a,#0x80
08EE 947F      2362            subb    a,#0x7f
08F0 5000      2363            jnc     L025020?
08F2 7CCE      2364            mov     r4,#0xCE
08F4 7DFF      2365            mov     r5,#0xFF
08F6 8000      2366            sjmp    L025020?
08F8           2367   L025016?:
08F8           2368   ;        C:\Vincent\source\tramsitterStopwatch.c:506: turn = 0;
08F8 7C00      2369            mov     r4,#0x00
08FA 7D00      2370            mov     r5,#0x00
08FC           2371   L025020?:
08FC           2372   ;        C:\Vincent\source\tramsitterStopwatch.c:509: if (base == 0 && turn == 0) {
08FC EE        2373            mov     a,r6
08FD 4F        2374            orl     a,r7
08FE 7000      2375            jnz     L025022?
0900 EC        2376            mov     a,r4
0901 4D        2377            orl     a,r5
0902 7000      2378            jnz     L025022?
0904           2379   ;        C:\Vincent\source\tramsitterStopwatch.c:510: IR_LoopbackPacket(CMD_STOP);
0904 758201    2380            mov     dpl,#0x01
0907 120000    2381            lcall   _IR_LoopbackPacket
090A           2382   ;        C:\Vincent\source\tramsitterStopwatch.c:511: Show_Command(CMD_STOP);
090A 758201    2383            mov     dpl,#0x01
090D           2384   ;        C:\Vincent\source\tramsitterStopwatch.c:512: return;
090D 020000    2385            ljmp    _Show_Command
0910           2386   L025022?:
0910           2387   ;        C:\Vincent\source\tramsitterStopwatch.c:515: lv = base + turn;
0910 EC        2388            mov     a,r4
0911 2E        2389            add     a,r6
0912 FA        2390            mov     r2,a
0913 ED        2391            mov     a,r5
0914 3F        2392            addc    a,r7
0915 FB        2393            mov     r3,a
0916           2394   ;        C:\Vincent\source\tramsitterStopwatch.c:516: rv = base - turn;
0916 EE        2395            mov     a,r6
0917 C3        2396            clr     c
0918 9C        2397            subb    a,r4
0919 FC        2398            mov     r4,a
091A EF        2399            mov     a,r7
091B 9D        2400            subb    a,r5
091C FD        2401            mov     r5,a
091D           2402   ;        C:\Vincent\source\tramsitterStopwatch.c:517: if (lv >  100) lv =  100;
091D C3        2403            clr     c
091E 7464      2404            mov     a,#0x64
0920 9A        2405            subb    a,r2
0921 E4        2406            clr     a
0922 6480      2407            xrl     a,#0x80
0924 8BF0      2408            mov     b,r3
0926 63F080    2409            xrl     b,#0x80
0929 95F0      2410            subb    a,b
092B 5000      2411            jnc     L025025?
092D 7A64      2412            mov     r2,#0x64
092F 7B00      2413            mov     r3,#0x00
0931           2414   L025025?:
0931           2415   ;        C:\Vincent\source\tramsitterStopwatch.c:518: if (lv < -100) lv = -100;
0931 C3        2416            clr     c
0932 EA        2417            mov     a,r2
0933 949C      2418            subb    a,#0x9C
0935 EB        2419            mov     a,r3
0936 6480      2420            xrl     a,#0x80
0938 947F      2421            subb    a,#0x7f
093A 5000      2422            jnc     L025027?
093C 7A9C      2423            mov     r2,#0x9C
093E 7BFF      2424            mov     r3,#0xFF
0940           2425   L025027?:
0940           2426   ;        C:\Vincent\source\tramsitterStopwatch.c:519: if (rv >  100) rv =  100;
0940 C3        2427            clr     c
0941 7464      2428            mov     a,#0x64
0943 9C        2429            subb    a,r4
0944 E4        2430            clr     a
0945 6480      2431            xrl     a,#0x80
0947 8DF0      2432            mov     b,r5
0949 63F080    2433            xrl     b,#0x80
094C 95F0      2434            subb    a,b
094E 5000      2435            jnc     L025029?
0950 7C64      2436            mov     r4,#0x64
0952 7D00      2437            mov     r5,#0x00
0954           2438   L025029?:
0954           2439   ;        C:\Vincent\source\tramsitterStopwatch.c:520: if (rv < -100) rv = -100;
0954 C3        2440            clr     c
0955 EC        2441            mov     a,r4
0956 949C      2442            subb    a,#0x9C
0958 ED        2443            mov     a,r5
0959 6480      2444            xrl     a,#0x80
095B 947F      2445            subb    a,#0x7f
095D 5000      2446            jnc     L025031?
095F 7C9C      2447            mov     r4,#0x9C
0961 7DFF      2448            mov     r5,#0xFF
0963           2449   L025031?:
0963           2450   ;        C:\Vincent\source\tramsitterStopwatch.c:522: lb = (lv >= 0) ? (0x80 | (unsigned char) lv)  : (unsigned char)(-lv);
0963 EB        2451            mov     a,r3
0964 33        2452            rlc     a
0965 E4        2453            clr     a
0966 33        2454            rlc     a
0967 FE        2455            mov     r6,a
0968 B40128    2456            cjne    a,#0x01,L025090?
096B           2457   L025090?:
096B E4        2458            clr     a
096C 33        2459            rlc     a
096D FF        2460            mov     r7,a
096E 6000      2461            jz      L025037?
0970 8A07      2462            mov     ar7,r2
0972 430780    2463            orl     ar7,#0x80
0975 8000      2464            sjmp    L025038?
0977           2465   L025037?:
0977 8A00      2466            mov     ar0,r2
0979 C3        2467            clr     c
097A E4        2468            clr     a
097B 98        2469            subb    a,r0
097C FF        2470            mov     r7,a
097D           2471   L025038?:
097D 8F18      2472            mov     _Send_Joystick_Proportional_lb_1_125,r7
097F           2473   ;        C:\Vincent\source\tramsitterStopwatch.c:523: rb = (rv >= 0) ? (0x80 | (unsigned char) rv)   : (unsigned char)(-rv);
097F ED        2474            mov     a,r5
0980 33        2475            rlc     a
0981 E4        2476            clr     a
0982 33        2477            rlc     a
0983 F8        2478            mov     r0,a
0984 B401E8    2479            cjne    a,#0x01,L025092?
0987           2480   L025092?:
0987 E4        2481            clr     a
0988 33        2482            rlc     a
0989 F9        2483            mov     r1,a
098A 6000      2484            jz      L025039?
098C 8C01      2485            mov     ar1,r4
098E 430180    2486            orl     ar1,#0x80
0991 8000      2487            sjmp    L025040?
0993           2488   L025039?:
0993 8C07      2489            mov     ar7,r4
0995 C3        2490            clr     c
0996 E4        2491            clr     a
0997 9F        2492            subb    a,r7
0998 F9        2493            mov     r1,a
0999           2494   L025040?:
0999           2495   ;        C:\Vincent\source\tramsitterStopwatch.c:524: chk = (unsigned char)(0xFF - CMD_JOYSTICK - lb - rb);
0999 74AF      2496            mov     a,#0xAF
099B C3        2497            clr     c
099C 9518      2498            subb    a,_Send_Joystick_Proportional_lb_1_125
099E C3        2499            clr     c
099F 99        2500            subb    a,r1
09A0 FF        2501            mov     r7,a
09A1           2502   ;        C:\Vincent\source\tramsitterStopwatch.c:526: IR_LoopbackByte(CMD_JOYSTICK);
09A1 758250    2503            mov     dpl,#0x50
09A4 C002      2504            push    ar2
09A6 C003      2505            push    ar3
09A8 C004      2506            push    ar4
09AA C005      2507            push    ar5
09AC C006      2508            push    ar6
09AE C007      2509            push    ar7
09B0 C000      2510            push    ar0
09B2 C001      2511            push    ar1
09B4 120000    2512            lcall   _IR_LoopbackByte
09B7           2513   ;        C:\Vincent\source\tramsitterStopwatch.c:527: IR_LoopbackByte(lb);
09B7 851882    2514            mov     dpl,_Send_Joystick_Proportional_lb_1_125
09BA 120000    2515            lcall   _IR_LoopbackByte
09BD D001      2516            pop     ar1
09BF           2517   ;        C:\Vincent\source\tramsitterStopwatch.c:528: IR_LoopbackByte(rb);
09BF 8982      2518            mov     dpl,r1
09C1 120000    2519            lcall   _IR_LoopbackByte
09C4 D000      2520            pop     ar0
09C6 D007      2521            pop     ar7
09C8           2522   ;        C:\Vincent\source\tramsitterStopwatch.c:529: IR_LoopbackByte(chk);
09C8 8F82      2523            mov     dpl,r7
09CA C000      2524            push    ar0
09CC 120000    2525            lcall   _IR_LoopbackByte
09CF           2526   ;        C:\Vincent\source\tramsitterStopwatch.c:530: IR_TX = 0;
09CF C294      2527            clr     _P1_4
09D1           2528   ;        C:\Vincent\source\tramsitterStopwatch.c:532: percent = Get_Battery_Percent();
09D1 120000    2529            lcall   _Get_Battery_Percent
09D4 858278    2530            mov     _Send_Joystick_Proportional_percent_1_125,dpl
09D7 D000      2531            pop     ar0
09D9 D006      2532            pop     ar6
09DB D005      2533            pop     ar5
09DD D004      2534            pop     ar4
09DF D003      2535            pop     ar3
09E1 D002      2536            pop     ar2
09E3           2537   ;        C:\Vincent\source\tramsitterStopwatch.c:536: disp[0]='L';
09E3 90BD28    2538            mov     dptr,#_Send_Joystick_Proportional_disp_1_125
09E6 744C      2539            mov     a,#0x4C
09E8 F0        2540            movx    @dptr,a
09E9           2541   ;        C:\Vincent\source\tramsitterStopwatch.c:537: disp[1]='0'+((lv<0?-lv:lv)/100%10);
09E9 EE        2542            mov     a,r6
09EA 6000      2543            jz      L025041?
09EC C3        2544            clr     c
09ED E4        2545            clr     a
09EE 9A        2546            subb    a,r2
09EF F5D8      2547            mov     _Send_Joystick_Proportional_sloc0_1_0,a
09F1 E4        2548            clr     a
09F2 9B        2549            subb    a,r3
09F3 F5D9      2550            mov     (_Send_Joystick_Proportional_sloc0_1_0 + 1),a
09F5 8000      2551            sjmp    L025042?
09F7           2552   L025041?:
09F7 8AD8      2553            mov     _Send_Joystick_Proportional_sloc0_1_0,r2
09F9 8BD9      2554            mov     (_Send_Joystick_Proportional_sloc0_1_0 + 1),r3
09FB           2555   L025042?:
09FB 750064    2556            mov     __divsint_PARM_2,#0x64
09FE E4        2557            clr     a
09FF F501      2558            mov     (__divsint_PARM_2 + 1),a
0A01 85D882    2559            mov     dpl,_Send_Joystick_Proportional_sloc0_1_0
0A04 85D983    2560            mov     dph,(_Send_Joystick_Proportional_sloc0_1_0 + 1)
0A07 C002      2561            push    ar2
0A09 C003      2562            push    ar3
0A0B C004      2563            push    ar4
0A0D C005      2564            push    ar5
0A0F C006      2565            push    ar6
0A11 C000      2566            push    ar0
0A13 120000    2567            lcall   __divsint
0A16 A982      2568            mov     r1,dpl
0A18 AF83      2569            mov     r7,dph
0A1A 75000A    2570            mov     __modsint_PARM_2,#0x0A
0A1D E4        2571            clr     a
0A1E F501      2572            mov     (__modsint_PARM_2 + 1),a
0A20 8982      2573            mov     dpl,r1
0A22 8F83      2574            mov     dph,r7
0A24 120000    2575            lcall   __modsint
0A27 AF82      2576            mov     r7,dpl
0A29 A983      2577            mov     r1,dph
0A2B D000      2578            pop     ar0
0A2D D006      2579            pop     ar6
0A2F D005      2580            pop     ar5
0A31 D004      2581            pop     ar4
0A33 D003      2582            pop     ar3
0A35 D002      2583            pop     ar2
0A37 7430      2584            mov     a,#0x30
0A39 2F        2585            add     a,r7
0A3A FF        2586            mov     r7,a
0A3B 90BD29    2587            mov     dptr,#(_Send_Joystick_Proportional_disp_1_125 + 0x0001)
0A3E F0        2588            movx    @dptr,a
0A3F           2589   ;        C:\Vincent\source\tramsitterStopwatch.c:538: disp[2]='0'+((lv<0?-lv:lv)/10%10);
0A3F EE        2590            mov     a,r6
0A40 6000      2591            jz      L025043?
0A42 C3        2592            clr     c
0A43 E4        2593            clr     a
0A44 9A        2594            subb    a,r2
0A45 FF        2595            mov     r7,a
0A46 E4        2596            clr     a
0A47 9B        2597            subb    a,r3
0A48 F9        2598            mov     r1,a
0A49 8000      2599            sjmp    L025044?
0A4B           2600   L025043?:
0A4B 8A07      2601            mov     ar7,r2
0A4D 8B01      2602            mov     ar1,r3
0A4F           2603   L025044?:
0A4F 75000A    2604            mov     __divsint_PARM_2,#0x0A
0A52 E4        2605            clr     a
0A53 F501      2606            mov     (__divsint_PARM_2 + 1),a
0A55 8F82      2607            mov     dpl,r7
0A57 8983      2608            mov     dph,r1
0A59 C002      2609            push    ar2
0A5B C003      2610            push    ar3
0A5D C004      2611            push    ar4
0A5F C005      2612            push    ar5
0A61 C006      2613            push    ar6
0A63 C000      2614            push    ar0
0A65 120000    2615            lcall   __divsint
0A68 AF82      2616            mov     r7,dpl
0A6A A983      2617            mov     r1,dph
0A6C 75000A    2618            mov     __modsint_PARM_2,#0x0A
0A6F E4        2619            clr     a
0A70 F501      2620            mov     (__modsint_PARM_2 + 1),a
0A72 8F82      2621            mov     dpl,r7
0A74 8983      2622            mov     dph,r1
0A76 120000    2623            lcall   __modsint
0A79 AF82      2624            mov     r7,dpl
0A7B A983      2625            mov     r1,dph
0A7D D000      2626            pop     ar0
0A7F D006      2627            pop     ar6
0A81 D005      2628            pop     ar5
0A83 D004      2629            pop     ar4
0A85 D003      2630            pop     ar3
0A87 D002      2631            pop     ar2
0A89 7430      2632            mov     a,#0x30
0A8B 2F        2633            add     a,r7
0A8C FF        2634            mov     r7,a
0A8D 90BD2A    2635            mov     dptr,#(_Send_Joystick_Proportional_disp_1_125 + 0x0002)
0A90 F0        2636            movx    @dptr,a
0A91           2637   ;        C:\Vincent\source\tramsitterStopwatch.c:539: disp[3]='0'+((lv<0?-lv:lv)%10);
0A91 EE        2638            mov     a,r6
0A92 6000      2639            jz      L025045?
0A94 C3        2640            clr     c
0A95 E4        2641            clr     a
0A96 9A        2642            subb    a,r2
0A97 FE        2643            mov     r6,a
0A98 E4        2644            clr     a
0A99 9B        2645            subb    a,r3
0A9A FF        2646            mov     r7,a
0A9B 8000      2647            sjmp    L025046?
0A9D           2648   L025045?:
0A9D 8A06      2649            mov     ar6,r2
0A9F 8B07      2650            mov     ar7,r3
0AA1           2651   L025046?:
0AA1 75000A    2652            mov     __modsint_PARM_2,#0x0A
0AA4 E4        2653            clr     a
0AA5 F501      2654            mov     (__modsint_PARM_2 + 1),a
0AA7 8E82      2655            mov     dpl,r6
0AA9 8F83      2656            mov     dph,r7
0AAB C004      2657            push    ar4
0AAD C005      2658            push    ar5
0AAF C000      2659            push    ar0
0AB1 120000    2660            lcall   __modsint
0AB4 AA82      2661            mov     r2,dpl
0AB6 AB83      2662            mov     r3,dph
0AB8 D000      2663            pop     ar0
0ABA D005      2664            pop     ar5
0ABC D004      2665            pop     ar4
0ABE 7430      2666            mov     a,#0x30
0AC0 2A        2667            add     a,r2
0AC1 FA        2668            mov     r2,a
0AC2 90BD2B    2669            mov     dptr,#(_Send_Joystick_Proportional_disp_1_125 + 0x0003)
0AC5 F0        2670            movx    @dptr,a
0AC6           2671   ;        C:\Vincent\source\tramsitterStopwatch.c:540: disp[4]=' ';
0AC6 90BD2C    2672            mov     dptr,#(_Send_Joystick_Proportional_disp_1_125 + 0x0004)
0AC9 7420      2673            mov     a,#0x20
0ACB F0        2674            movx    @dptr,a
0ACC           2675   ;        C:\Vincent\source\tramsitterStopwatch.c:541: disp[5]='R';
0ACC 90BD2D    2676            mov     dptr,#(_Send_Joystick_Proportional_disp_1_125 + 0x0005)
0ACF 7452      2677            mov     a,#0x52
0AD1 F0        2678            movx    @dptr,a
0AD2           2679   ;        C:\Vincent\source\tramsitterStopwatch.c:542: disp[6]='0'+((rv<0?-rv:rv)/100%10);
0AD2 E8        2680            mov     a,r0
0AD3 6000      2681            jz      L025047?
0AD5 C3        2682            clr     c
0AD6 E4        2683            clr     a
0AD7 9C        2684            subb    a,r4
0AD8 FA        2685            mov     r2,a
0AD9 E4        2686            clr     a
0ADA 9D        2687            subb    a,r5
0ADB FB        2688            mov     r3,a
0ADC 8000      2689            sjmp    L025048?
0ADE           2690   L025047?:
0ADE 8C02      2691            mov     ar2,r4
0AE0 8D03      2692            mov     ar3,r5
0AE2           2693   L025048?:
0AE2 750064    2694            mov     __divsint_PARM_2,#0x64
0AE5 E4        2695            clr     a
0AE6 F501      2696            mov     (__divsint_PARM_2 + 1),a
0AE8 8A82      2697            mov     dpl,r2
0AEA 8B83      2698            mov     dph,r3
0AEC C004      2699            push    ar4
0AEE C005      2700            push    ar5
0AF0 C000      2701            push    ar0
0AF2 120000    2702            lcall   __divsint
0AF5 AA82      2703            mov     r2,dpl
0AF7 AB83      2704            mov     r3,dph
0AF9 75000A    2705            mov     __modsint_PARM_2,#0x0A
0AFC E4        2706            clr     a
0AFD F501      2707            mov     (__modsint_PARM_2 + 1),a
0AFF 8A82      2708            mov     dpl,r2
0B01 8B83      2709            mov     dph,r3
0B03 120000    2710            lcall   __modsint
0B06 AA82      2711            mov     r2,dpl
0B08 AB83      2712            mov     r3,dph
0B0A D000      2713            pop     ar0
0B0C D005      2714            pop     ar5
0B0E D004      2715            pop     ar4
0B10 7430      2716            mov     a,#0x30
0B12 2A        2717            add     a,r2
0B13 FA        2718            mov     r2,a
0B14 90BD2E    2719            mov     dptr,#(_Send_Joystick_Proportional_disp_1_125 + 0x0006)
0B17 F0        2720            movx    @dptr,a
0B18           2721   ;        C:\Vincent\source\tramsitterStopwatch.c:543: disp[7]='0'+((rv<0?-rv:rv)/10%10);
0B18 E8        2722            mov     a,r0
0B19 6000      2723            jz      L025049?
0B1B C3        2724            clr     c
0B1C E4        2725            clr     a
0B1D 9C        2726            subb    a,r4
0B1E FA        2727            mov     r2,a
0B1F E4        2728            clr     a
0B20 9D        2729            subb    a,r5
0B21 FB        2730            mov     r3,a
0B22 8000      2731            sjmp    L025050?
0B24           2732   L025049?:
0B24 8C02      2733            mov     ar2,r4
0B26 8D03      2734            mov     ar3,r5
0B28           2735   L025050?:
0B28 75000A    2736            mov     __divsint_PARM_2,#0x0A
0B2B E4        2737            clr     a
0B2C F501      2738            mov     (__divsint_PARM_2 + 1),a
0B2E 8A82      2739            mov     dpl,r2
0B30 8B83      2740            mov     dph,r3
0B32 C004      2741            push    ar4
0B34 C005      2742            push    ar5
0B36 C000      2743            push    ar0
0B38 120000    2744            lcall   __divsint
0B3B AA82      2745            mov     r2,dpl
0B3D AB83      2746            mov     r3,dph
0B3F 75000A    2747            mov     __modsint_PARM_2,#0x0A
0B42 E4        2748            clr     a
0B43 F501      2749            mov     (__modsint_PARM_2 + 1),a
0B45 8A82      2750            mov     dpl,r2
0B47 8B83      2751            mov     dph,r3
0B49 120000    2752            lcall   __modsint
0B4C AA82      2753            mov     r2,dpl
0B4E AB83      2754            mov     r3,dph
0B50 D000      2755            pop     ar0
0B52 D005      2756            pop     ar5
0B54 D004      2757            pop     ar4
0B56 7430      2758            mov     a,#0x30
0B58 2A        2759            add     a,r2
0B59 FA        2760            mov     r2,a
0B5A 90BD2F    2761            mov     dptr,#(_Send_Joystick_Proportional_disp_1_125 + 0x0007)
0B5D F0        2762            movx    @dptr,a
0B5E           2763   ;        C:\Vincent\source\tramsitterStopwatch.c:544: disp[8]='0'+((rv<0?-rv:rv)%10);
0B5E E8        2764            mov     a,r0
0B5F 6000      2765            jz      L025051?
0B61 C3        2766            clr     c
0B62 E4        2767            clr     a
0B63 9C        2768            subb    a,r4
0B64 FA        2769            mov     r2,a
0B65 E4        2770            clr     a
0B66 9D        2771            subb    a,r5
0B67 FB        2772            mov     r3,a
0B68 8000      2773            sjmp    L025052?
0B6A           2774   L025051?:
0B6A 8C02      2775            mov     ar2,r4
0B6C 8D03      2776            mov     ar3,r5
0B6E           2777   L025052?:
0B6E 75000A    2778            mov     __modsint_PARM_2,#0x0A
0B71 E4        2779            clr     a
0B72 F501      2780            mov     (__modsint_PARM_2 + 1),a
0B74 8A82      2781            mov     dpl,r2
0B76 8B83      2782            mov     dph,r3
0B78 120000    2783            lcall   __modsint
0B7B AA82      2784            mov     r2,dpl
0B7D AB83      2785            mov     r3,dph
0B7F 7430      2786            mov     a,#0x30
0B81 2A        2787            add     a,r2
0B82 FA        2788            mov     r2,a
0B83 90BD30    2789            mov     dptr,#(_Send_Joystick_Proportional_disp_1_125 + 0x0008)
0B86 F0        2790            movx    @dptr,a
0B87           2791   ;        C:\Vincent\source\tramsitterStopwatch.c:545: disp[9]=' ';
0B87 90BD31    2792            mov     dptr,#(_Send_Joystick_Proportional_disp_1_125 + 0x0009)
0B8A 7420      2793            mov     a,#0x20
0B8C F0        2794            movx    @dptr,a
0B8D           2795   ;        C:\Vincent\source\tramsitterStopwatch.c:546: disp[10]='B';
0B8D 90BD32    2796            mov     dptr,#(_Send_Joystick_Proportional_disp_1_125 + 0x000a)
0B90 7442      2797            mov     a,#0x42
0B92 F0        2798            movx    @dptr,a
0B93           2799   ;        C:\Vincent\source\tramsitterStopwatch.c:547: disp[11]=':';
0B93 90BD33    2800            mov     dptr,#(_Send_Joystick_Proportional_disp_1_125 + 0x000b)
0B96 743A      2801            mov     a,#0x3A
0B98 F0        2802            movx    @dptr,a
0B99           2803   ;        C:\Vincent\source\tramsitterStopwatch.c:548: if(percent >= 100) {
0B99 749C      2804            mov     a,#0x100 - 0x64
0B9B 2578      2805            add     a,_Send_Joystick_Proportional_percent_1_125
0B9D 5000      2806            jnc     L025033?
0B9F           2807   ;        C:\Vincent\source\tramsitterStopwatch.c:549: disp[12]='1'; disp[13]='0'; disp[14]='0';
0B9F 90BD34    2808            mov     dptr,#(_Send_Joystick_Proportional_disp_1_125 + 0x000c)
0BA2 7431      2809            mov     a,#0x31
0BA4 F0        2810            movx    @dptr,a
0BA5 90BD35    2811            mov     dptr,#(_Send_Joystick_Proportional_disp_1_125 + 0x000d)
0BA8 7430      2812            mov     a,#0x30
0BAA F0        2813            movx    @dptr,a
0BAB 90BD36    2814            mov     dptr,#(_Send_Joystick_Proportional_disp_1_125 + 0x000e)
0BAE 7430      2815            mov     a,#0x30
0BB0 F0        2816            movx    @dptr,a
0BB1 8000      2817            sjmp    L025034?
0BB3           2818   L025033?:
0BB3           2819   ;        C:\Vincent\source\tramsitterStopwatch.c:551: disp[12]=' '; // Space
0BB3 90BD34    2820            mov     dptr,#(_Send_Joystick_Proportional_disp_1_125 + 0x000c)
0BB6 7420      2821            mov     a,#0x20
0BB8 F0        2822            movx    @dptr,a
0BB9           2823   ;        C:\Vincent\source\tramsitterStopwatch.c:552: disp[13]='0'+(percent/10);
0BB9 75F00A    2824            mov     b,#0x0A
0BBC E578      2825            mov     a,_Send_Joystick_Proportional_percent_1_125
0BBE 84        2826            div     ab
0BBF 2430      2827            add     a,#0x30
0BC1 90BD35    2828            mov     dptr,#(_Send_Joystick_Proportional_disp_1_125 + 0x000d)
0BC4 F0        2829            movx    @dptr,a
0BC5           2830   ;        C:\Vincent\source\tramsitterStopwatch.c:553: disp[14]='0'+(percent%10);
0BC5 75F00A    2831            mov     b,#0x0A
0BC8 E578      2832            mov     a,_Send_Joystick_Proportional_percent_1_125
0BCA 84        2833            div     ab
0BCB E5F0      2834            mov     a,b
0BCD 2430      2835            add     a,#0x30
0BCF FA        2836            mov     r2,a
0BD0 90BD36    2837            mov     dptr,#(_Send_Joystick_Proportional_disp_1_125 + 0x000e)
0BD3 F0        2838            movx    @dptr,a
0BD4           2839   L025034?:
0BD4           2840   ;        C:\Vincent\source\tramsitterStopwatch.c:555: disp[15]='%';
0BD4 90BD37    2841            mov     dptr,#(_Send_Joystick_Proportional_disp_1_125 + 0x000f)
0BD7 7425      2842            mov     a,#0x25
0BD9 F0        2843            movx    @dptr,a
0BDA           2844   ;        C:\Vincent\source\tramsitterStopwatch.c:556: disp[16]=0;
0BDA 90BD38    2845            mov     dptr,#(_Send_Joystick_Proportional_disp_1_125 + 0x0010)
0BDD E4        2846            clr     a
0BDE F0        2847            movx    @dptr,a
0BDF           2848   ;        C:\Vincent\source\tramsitterStopwatch.c:557: LCDprint(disp, 1, 1);
0BDF 750801    2849            mov     _LCDprint_PARM_2,#0x01
0BE2 D268      2850            setb    _LCDprint_PARM_3
0BE4 90BD28    2851            mov     dptr,#_Send_Joystick_Proportional_disp_1_125
0BE7 75F000    2852            mov     b,#0x00
0BEA 020000    2853            ljmp    _LCDprint
0BED           2854   ;------------------------------------------------------------
0BED           2855   ;Allocation info for local variables in function 'Password4BitToString'
0BED           2856   ;------------------------------------------------------------
0BED           2857   ;str                       Allocated with name '_Password4BitToString_PARM_2'
0BED           2858   ;val                       Allocated to registers r2 
0BED           2859   ;------------------------------------------------------------
0BED           2860   ;        C:\Vincent\source\tramsitterStopwatch.c:565: void Password4BitToString(unsigned char val, char *str)
0BED           2861   ;        -----------------------------------------
0BED           2862   ;         function Password4BitToString
0BED           2863   ;        -----------------------------------------
0BED           2864   _Password4BitToString:
0BED AA82      2865            mov     r2,dpl
0BEF           2866   ;        C:\Vincent\source\tramsitterStopwatch.c:567: str[0] = (val & 0x08) ? '1' : '0';
0BEF AB78      2867            mov     r3,_Password4BitToString_PARM_2
0BF1 AC79      2868            mov     r4,(_Password4BitToString_PARM_2 + 1)
0BF3 AD7A      2869            mov     r5,(_Password4BitToString_PARM_2 + 2)
0BF5 EA        2870            mov     a,r2
0BF6 30E348    2871            jnb     acc.3,L026003?
0BF9 7E31      2872            mov     r6,#0x31
0BFB 8000      2873            sjmp    L026004?
0BFD           2874   L026003?:
0BFD 7E30      2875            mov     r6,#0x30
0BFF           2876   L026004?:
0BFF 8B82      2877            mov     dpl,r3
0C01 8C83      2878            mov     dph,r4
0C03 8DF0      2879            mov     b,r5
0C05 EE        2880            mov     a,r6
0C06 120000    2881            lcall   __gptrput
0C09           2882   ;        C:\Vincent\source\tramsitterStopwatch.c:568: str[1] = (val & 0x04) ? '1' : '0';
0C09 7401      2883            mov     a,#0x01
0C0B 2B        2884            add     a,r3
0C0C FE        2885            mov     r6,a
0C0D E4        2886            clr     a
0C0E 3C        2887            addc    a,r4
0C0F FF        2888            mov     r7,a
0C10 8D00      2889            mov     ar0,r5
0C12 EA        2890            mov     a,r2
0C13 30E2C8    2891            jnb     acc.2,L026005?
0C16 7931      2892            mov     r1,#0x31
0C18 8000      2893            sjmp    L026006?
0C1A           2894   L026005?:
0C1A 7930      2895            mov     r1,#0x30
0C1C           2896   L026006?:
0C1C 8E82      2897            mov     dpl,r6
0C1E 8F83      2898            mov     dph,r7
0C20 88F0      2899            mov     b,r0
0C22 E9        2900            mov     a,r1
0C23 120000    2901            lcall   __gptrput
0C26           2902   ;        C:\Vincent\source\tramsitterStopwatch.c:569: str[2] = (val & 0x02) ? '1' : '0';
0C26 7402      2903            mov     a,#0x02
0C28 2B        2904            add     a,r3
0C29 FE        2905            mov     r6,a
0C2A E4        2906            clr     a
0C2B 3C        2907            addc    a,r4
0C2C FF        2908            mov     r7,a
0C2D 8D00      2909            mov     ar0,r5
0C2F EA        2910            mov     a,r2
0C30 30E148    2911            jnb     acc.1,L026007?
0C33 7931      2912            mov     r1,#0x31
0C35 8000      2913            sjmp    L026008?
0C37           2914   L026007?:
0C37 7930      2915            mov     r1,#0x30
0C39           2916   L026008?:
0C39 8E82      2917            mov     dpl,r6
0C3B 8F83      2918            mov     dph,r7
0C3D 88F0      2919            mov     b,r0
0C3F E9        2920            mov     a,r1
0C40 120000    2921            lcall   __gptrput
0C43           2922   ;        C:\Vincent\source\tramsitterStopwatch.c:570: str[3] = (val & 0x01) ? '1' : '0';
0C43 7403      2923            mov     a,#0x03
0C45 2B        2924            add     a,r3
0C46 FE        2925            mov     r6,a
0C47 E4        2926            clr     a
0C48 3C        2927            addc    a,r4
0C49 FF        2928            mov     r7,a
0C4A 8D00      2929            mov     ar0,r5
0C4C EA        2930            mov     a,r2
0C4D 30E0C8    2931            jnb     acc.0,L026009?
0C50 7A31      2932            mov     r2,#0x31
0C52 8000      2933            sjmp    L026010?
0C54           2934   L026009?:
0C54 7A30      2935            mov     r2,#0x30
0C56           2936   L026010?:
0C56 8E82      2937            mov     dpl,r6
0C58 8F83      2938            mov     dph,r7
0C5A 88F0      2939            mov     b,r0
0C5C EA        2940            mov     a,r2
0C5D 120000    2941            lcall   __gptrput
0C60           2942   ;        C:\Vincent\source\tramsitterStopwatch.c:571: str[4] = 0;
0C60 7404      2943            mov     a,#0x04
0C62 2B        2944            add     a,r3
0C63 FB        2945            mov     r3,a
0C64 E4        2946            clr     a
0C65 3C        2947            addc    a,r4
0C66 FC        2948            mov     r4,a
0C67 8B82      2949            mov     dpl,r3
0C69 8C83      2950            mov     dph,r4
0C6B 8DF0      2951            mov     b,r5
0C6D E4        2952            clr     a
0C6E 020000    2953            ljmp    __gptrput
0C71           2954   ;------------------------------------------------------------
0C71           2955   ;Allocation info for local variables in function 'Password_Entry_Screen'
0C71           2956   ;------------------------------------------------------------
0C71           2957   ;line1_msg                 Allocated to registers r2 r3 r4 
0C71           2958   ;pass                      Allocated to registers r5 
0C71           2959   ;pass_str                  Allocated with name '_Password_Entry_Screen_pass_str_1_138'
0C71           2960   ;line2                     Allocated with name '_Password_Entry_Screen_line2_1_138'
0C71           2961   ;------------------------------------------------------------
0C71           2962   ;        C:\Vincent\source\tramsitterStopwatch.c:576: unsigned char Password_Entry_Screen(char *line1_msg)
0C71           2963   ;        -----------------------------------------
0C71           2964   ;         function Password_Entry_Screen
0C71           2965   ;        -----------------------------------------
0C71           2966   _Password_Entry_Screen:
0C71 AA82      2967            mov     r2,dpl
0C73 AB83      2968            mov     r3,dph
0C75 ACF0      2969            mov     r4,b
0C77           2970   ;        C:\Vincent\source\tramsitterStopwatch.c:578: unsigned char pass = 0;  // 4-bit value (0000)
0C77 7D00      2971            mov     r5,#0x00
0C79           2972   ;        C:\Vincent\source\tramsitterStopwatch.c:582: while (1)
0C79           2973   L027025?:
0C79           2974   ;        C:\Vincent\source\tramsitterStopwatch.c:585: Password4BitToString(pass, pass_str);
0C79 757838    2975            mov     _Password4BitToString_PARM_2,#_Password_Entry_Screen_pass_str_1_138
0C7C 757900    2976            mov     (_Password4BitToString_PARM_2 + 1),#0x00
0C7F 757A40    2977            mov     (_Password4BitToString_PARM_2 + 2),#0x40
0C82 8D82      2978            mov     dpl,r5
0C84 C002      2979            push    ar2
0C86 C003      2980            push    ar3
0C88 C004      2981            push    ar4
0C8A C005      2982            push    ar5
0C8C 120000    2983            lcall   _Password4BitToString
0C8F D005      2984            pop     ar5
0C91 D004      2985            pop     ar4
0C93 D003      2986            pop     ar3
0C95 D002      2987            pop     ar2
0C97           2988   ;        C:\Vincent\source\tramsitterStopwatch.c:586: line2[0] = 'P'; line2[1] = 'a'; line2[2] = 's'; line2[3] = 's';
0C97 90BD88    2989            mov     dptr,#_Password_Entry_Screen_line2_1_138
0C9A 7450      2990            mov     a,#0x50
0C9C F0        2991            movx    @dptr,a
0C9D 90BD89    2992            mov     dptr,#(_Password_Entry_Screen_line2_1_138 + 0x0001)
0CA0 7461      2993            mov     a,#0x61
0CA2 F0        2994            movx    @dptr,a
0CA3 90BD8A    2995            mov     dptr,#(_Password_Entry_Screen_line2_1_138 + 0x0002)
0CA6 7473      2996            mov     a,#0x73
0CA8 F0        2997            movx    @dptr,a
0CA9 90BD8B    2998            mov     dptr,#(_Password_Entry_Screen_line2_1_138 + 0x0003)
0CAC 7473      2999            mov     a,#0x73
0CAE F0        3000            movx    @dptr,a
0CAF           3001   ;        C:\Vincent\source\tramsitterStopwatch.c:587: line2[4] = ':'; line2[5] = ' ';
0CAF 90BD8C    3002            mov     dptr,#(_Password_Entry_Screen_line2_1_138 + 0x0004)
0CB2 743A      3003            mov     a,#0x3A
0CB4 F0        3004            movx    @dptr,a
0CB5 90BD8D    3005            mov     dptr,#(_Password_Entry_Screen_line2_1_138 + 0x0005)
0CB8 7420      3006            mov     a,#0x20
0CBA F0        3007            movx    @dptr,a
0CBB           3008   ;        C:\Vincent\source\tramsitterStopwatch.c:588: line2[6] = pass_str[0];
0CBB 90BD8E    3009            mov     dptr,#(_Password_Entry_Screen_line2_1_138 + 0x0006)
0CBE E538      3010            mov     a,_Password_Entry_Screen_pass_str_1_138
0CC0 F0        3011            movx    @dptr,a
0CC1           3012   ;        C:\Vincent\source\tramsitterStopwatch.c:589: line2[7] = pass_str[1];
0CC1 90BD8F    3013            mov     dptr,#(_Password_Entry_Screen_line2_1_138 + 0x0007)
0CC4 E539      3014            mov     a,(_Password_Entry_Screen_pass_str_1_138 + 0x0001)
0CC6 F0        3015            movx    @dptr,a
0CC7           3016   ;        C:\Vincent\source\tramsitterStopwatch.c:590: line2[8] = pass_str[2];
0CC7 90BD90    3017            mov     dptr,#(_Password_Entry_Screen_line2_1_138 + 0x0008)
0CCA E53A      3018            mov     a,(_Password_Entry_Screen_pass_str_1_138 + 0x0002)
0CCC F0        3019            movx    @dptr,a
0CCD           3020   ;        C:\Vincent\source\tramsitterStopwatch.c:591: line2[9] = pass_str[3];
0CCD 90BD91    3021            mov     dptr,#(_Password_Entry_Screen_line2_1_138 + 0x0009)
0CD0 E53B      3022            mov     a,(_Password_Entry_Screen_pass_str_1_138 + 0x0003)
0CD2 F0        3023            movx    @dptr,a
0CD3           3024   ;        C:\Vincent\source\tramsitterStopwatch.c:592: line2[10] = ' '; line2[11] = ' '; line2[12] = ' ';
0CD3 90BD92    3025            mov     dptr,#(_Password_Entry_Screen_line2_1_138 + 0x000a)
0CD6 7420      3026            mov     a,#0x20
0CD8 F0        3027            movx    @dptr,a
0CD9 90BD93    3028            mov     dptr,#(_Password_Entry_Screen_line2_1_138 + 0x000b)
0CDC 7420      3029            mov     a,#0x20
0CDE F0        3030            movx    @dptr,a
0CDF 90BD94    3031            mov     dptr,#(_Password_Entry_Screen_line2_1_138 + 0x000c)
0CE2 7420      3032            mov     a,#0x20
0CE4 F0        3033            movx    @dptr,a
0CE5           3034   ;        C:\Vincent\source\tramsitterStopwatch.c:593: line2[13] = ' '; line2[14] = ' '; line2[15] = ' '; line2[16] = 0;
0CE5 90BD95    3035            mov     dptr,#(_Password_Entry_Screen_line2_1_138 + 0x000d)
0CE8 7420      3036            mov     a,#0x20
0CEA F0        3037            movx    @dptr,a
0CEB 90BD96    3038            mov     dptr,#(_Password_Entry_Screen_line2_1_138 + 0x000e)
0CEE 7420      3039            mov     a,#0x20
0CF0 F0        3040            movx    @dptr,a
0CF1 90BD97    3041            mov     dptr,#(_Password_Entry_Screen_line2_1_138 + 0x000f)
0CF4 7420      3042            mov     a,#0x20
0CF6 F0        3043            movx    @dptr,a
0CF7 90BD98    3044            mov     dptr,#(_Password_Entry_Screen_line2_1_138 + 0x0010)
0CFA E4        3045            clr     a
0CFB F0        3046            movx    @dptr,a
0CFC           3047   ;        C:\Vincent\source\tramsitterStopwatch.c:595: LCDprint(line1_msg, 1, 1);
0CFC 750801    3048            mov     _LCDprint_PARM_2,#0x01
0CFF D268      3049            setb    _LCDprint_PARM_3
0D01 8A82      3050            mov     dpl,r2
0D03 8B83      3051            mov     dph,r3
0D05 8CF0      3052            mov     b,r4
0D07 C002      3053            push    ar2
0D09 C003      3054            push    ar3
0D0B C004      3055            push    ar4
0D0D C005      3056            push    ar5
0D0F 120000    3057            lcall   _LCDprint
0D12           3058   ;        C:\Vincent\source\tramsitterStopwatch.c:596: LCDprint(line2, 2, 1);
0D12 750802    3059            mov     _LCDprint_PARM_2,#0x02
0D15 D268      3060            setb    _LCDprint_PARM_3
0D17 90BD88    3061            mov     dptr,#_Password_Entry_Screen_line2_1_138
0D1A 75F000    3062            mov     b,#0x00
0D1D 120000    3063            lcall   _LCDprint
0D20 D005      3064            pop     ar5
0D22 D004      3065            pop     ar4
0D24 D003      3066            pop     ar3
0D26 D002      3067            pop     ar2
0D28           3068   ;        C:\Vincent\source\tramsitterStopwatch.c:599: if (BTN1 == 0)
0D28 20A588    3069            jb      _P2_5,L027022?
0D2B           3070   ;        C:\Vincent\source\tramsitterStopwatch.c:601: waitms(20);  // Debounce
0D2B 900014    3071            mov     dptr,#0x0014
0D2E C002      3072            push    ar2
0D30 C003      3073            push    ar3
0D32 C004      3074            push    ar4
0D34 C005      3075            push    ar5
0D36 120000    3076            lcall   _waitms
0D39 D005      3077            pop     ar5
0D3B D004      3078            pop     ar4
0D3D D003      3079            pop     ar3
0D3F D002      3080            pop     ar2
0D41           3081   ;        C:\Vincent\source\tramsitterStopwatch.c:602: if (BTN1 == 0)
0D41 30A548    3082            jnb     _P2_5,L027042?
0D44 020000    3083            ljmp    L027023?
0D47           3084   L027042?:
0D47           3085   ;        C:\Vincent\source\tramsitterStopwatch.c:604: pass = (pass << 1) & 0x0F;  // Shift left, add 0, keep 4 bits
0D47 ED        3086            mov     a,r5
0D48 2D        3087            add     a,r5
0D49 FE        3088            mov     r6,a
0D4A 740F      3089            mov     a,#0x0F
0D4C 5E        3090            anl     a,r6
0D4D FD        3091            mov     r5,a
0D4E           3092   ;        C:\Vincent\source\tramsitterStopwatch.c:605: while (BTN1 == 0);  // Wait for release
0D4E           3093   L027001?:
0D4E 30A5B0    3094            jnb     _P2_5,L027001?
0D51           3095   ;        C:\Vincent\source\tramsitterStopwatch.c:606: waitms(50);
0D51 900032    3096            mov     dptr,#0x0032
0D54 C002      3097            push    ar2
0D56 C003      3098            push    ar3
0D58 C004      3099            push    ar4
0D5A C005      3100            push    ar5
0D5C 120000    3101            lcall   _waitms
0D5F D005      3102            pop     ar5
0D61 D004      3103            pop     ar4
0D63 D003      3104            pop     ar3
0D65 D002      3105            pop     ar2
0D67 8000      3106            sjmp    L027023?
0D69           3107   L027022?:
0D69           3108   ;        C:\Vincent\source\tramsitterStopwatch.c:611: else if (BTN2 == 0)
0D69 20A4F0    3109            jb      _P2_4,L027019?
0D6C           3110   ;        C:\Vincent\source\tramsitterStopwatch.c:613: waitms(20);  // Debounce
0D6C 900014    3111            mov     dptr,#0x0014
0D6F C002      3112            push    ar2
0D71 C003      3113            push    ar3
0D73 C004      3114            push    ar4
0D75 C005      3115            push    ar5
0D77 120000    3116            lcall   _waitms
0D7A D005      3117            pop     ar5
0D7C D004      3118            pop     ar4
0D7E D003      3119            pop     ar3
0D80 D002      3120            pop     ar2
0D82           3121   ;        C:\Vincent\source\tramsitterStopwatch.c:614: if (BTN2 == 0)
0D82 20A470    3122            jb      _P2_4,L027023?
0D85           3123   ;        C:\Vincent\source\tramsitterStopwatch.c:616: pass = ((pass << 1) | 0x01) & 0x0F;  // Shift left, add 1, keep 4 bits
0D85 ED        3124            mov     a,r5
0D86 2D        3125            add     a,r5
0D87 FE        3126            mov     r6,a
0D88 7401      3127            mov     a,#0x01
0D8A 4E        3128            orl     a,r6
0D8B 540F      3129            anl     a,#0x0F
0D8D FD        3130            mov     r5,a
0D8E           3131   ;        C:\Vincent\source\tramsitterStopwatch.c:617: while (BTN2 == 0);  // Wait for release
0D8E           3132   L027006?:
0D8E 30A430    3133            jnb     _P2_4,L027006?
0D91           3134   ;        C:\Vincent\source\tramsitterStopwatch.c:618: waitms(50);
0D91 900032    3135            mov     dptr,#0x0032
0D94 C002      3136            push    ar2
0D96 C003      3137            push    ar3
0D98 C004      3138            push    ar4
0D9A C005      3139            push    ar5
0D9C 120000    3140            lcall   _waitms
0D9F D005      3141            pop     ar5
0DA1 D004      3142            pop     ar4
0DA3 D003      3143            pop     ar3
0DA5 D002      3144            pop     ar2
0DA7 8000      3145            sjmp    L027023?
0DA9           3146   L027019?:
0DA9           3147   ;        C:\Vincent\source\tramsitterStopwatch.c:623: else if (BTN3 == 0)
0DA9 20A670    3148            jb      _P2_6,L027023?
0DAC           3149   ;        C:\Vincent\source\tramsitterStopwatch.c:625: waitms(20);  // Debounce
0DAC 900014    3150            mov     dptr,#0x0014
0DAF C002      3151            push    ar2
0DB1 C003      3152            push    ar3
0DB3 C004      3153            push    ar4
0DB5 C005      3154            push    ar5
0DB7 120000    3155            lcall   _waitms
0DBA D005      3156            pop     ar5
0DBC D004      3157            pop     ar4
0DBE D003      3158            pop     ar3
0DC0 D002      3159            pop     ar2
0DC2           3160   ;        C:\Vincent\source\tramsitterStopwatch.c:626: if (BTN3 == 0)
0DC2 20A670    3161            jb      _P2_6,L027023?
0DC5           3162   ;        C:\Vincent\source\tramsitterStopwatch.c:628: while (BTN3 == 0);  // Wait for release
0DC5           3163   L027011?:
0DC5 30A670    3164            jnb     _P2_6,L027011?
0DC8           3165   ;        C:\Vincent\source\tramsitterStopwatch.c:629: return pass;  // Return the entered password
0DC8 8D82      3166            mov     dpl,r5
0DCA 22        3167            ret
0DCB           3168   L027023?:
0DCB           3169   ;        C:\Vincent\source\tramsitterStopwatch.c:633: waitms(50);
0DCB 900032    3170            mov     dptr,#0x0032
0DCE C002      3171            push    ar2
0DD0 C003      3172            push    ar3
0DD2 C004      3173            push    ar4
0DD4 C005      3174            push    ar5
0DD6 120000    3175            lcall   _waitms
0DD9 D005      3176            pop     ar5
0DDB D004      3177            pop     ar4
0DDD D003      3178            pop     ar3
0DDF D002      3179            pop     ar2
0DE1 020000    3180            ljmp    L027025?
0DE4           3181   ;------------------------------------------------------------
0DE4           3182   ;Allocation info for local variables in function 'Init_Timer2_1Hz'
0DE4           3183   ;------------------------------------------------------------
0DE4           3184   ;------------------------------------------------------------
0DE4           3185   ;        C:\Vincent\source\tramsitterStopwatch.c:640: void Init_Timer2_1Hz(void)
0DE4           3186   ;        -----------------------------------------
0DE4           3187   ;         function Init_Timer2_1Hz
0DE4           3188   ;        -----------------------------------------
0DE4           3189   _Init_Timer2_1Hz:
0DE4           3190   ;        C:\Vincent\source\tramsitterStopwatch.c:648: TMR2CN0 = 0x00;     // Stop Timer2, clear overflow flag
0DE4 75C800    3191            mov     _TMR2CN0,#0x00
0DE7           3192   ;        C:\Vincent\source\tramsitterStopwatch.c:649: CKCON0 &= ~0x30;    // Timer2 uses SYSCLK/12 = 6 MHz
0DE7 538ECF    3193            anl     _CKCON0,#0xCF
0DEA           3194   ;        C:\Vincent\source\tramsitterStopwatch.c:650: TMR2RL = 5536;    // Reload value for 100 Hz (10 ms)
0DEA 75CAA0    3195            mov     _TMR2RL,#0xA0
0DED 75CB15    3196            mov     (_TMR2RL >> 8),#0x15
0DF0           3197   ;        C:\Vincent\source\tramsitterStopwatch.c:651: TMR2 = TMR2RL;      // Initialize Timer2
0DF0 85CACE    3198            mov     _TMR2,_TMR2RL
0DF3 85CBCF    3199            mov     (_TMR2 >> 8),(_TMR2RL >> 8)
0DF6           3200   ;        C:\Vincent\source\tramsitterStopwatch.c:652: ET2 = 1;            // Enable Timer2 interrupts
0DF6 D2AD      3201            setb    _ET2
0DF8           3202   ;        C:\Vincent\source\tramsitterStopwatch.c:653: TR2 = 1;            // Start Timer2
0DF8 D2CA      3203            setb    _TR2
0DFA 22        3204            ret
0DFB           3205   ;------------------------------------------------------------
0DFB           3206   ;Allocation info for local variables in function 'Timer2_ISR'
0DFB           3207   ;------------------------------------------------------------
0DFB           3208   ;tick_count                Allocated with name '_Timer2_ISR_tick_count_1_149'
0DFB           3209   ;------------------------------------------------------------
0DFB           3210   ;        C:\Vincent\source\tramsitterStopwatch.c:657: void Timer2_ISR(void) interrupt 5
0DFB           3211   ;        -----------------------------------------
0DFB           3212   ;         function Timer2_ISR
0DFB           3213   ;        -----------------------------------------
0DFB           3214   _Timer2_ISR:
0DFB C0E0      3215            push    acc
0DFD C0D0      3216            push    psw
0DFF 75D000    3217            mov     psw,#0x00
0E02           3218   ;        C:\Vincent\source\tramsitterStopwatch.c:661: TF2H = 0;  // Clear Timer2 interrupt flag
0E02 C2CF      3219            clr     _TF2H
0E04           3220   ;        C:\Vincent\source\tramsitterStopwatch.c:663: if (auto_mode && !stopwatch_paused) {
0E04 30A8F0    3221            jnb     _auto_mode,L029006?
0E07 2038F0    3222            jb      _stopwatch_paused,L029006?
0E0A           3223   ;        C:\Vincent\source\tramsitterStopwatch.c:664: tick_count++;
0E0A 0588      3224            inc     _Timer2_ISR_tick_count_1_149
0E0C           3225   ;        C:\Vincent\source\tramsitterStopwatch.c:665: if (tick_count >= 100) {  // 100 * 10ms = 1 second
0E0C 749C      3226            mov     a,#0x100 - 0x64
0E0E 2588      3227            add     a,_Timer2_ISR_tick_count_1_149
0E10 5000      3228            jnc     L029006?
0E12           3229   ;        C:\Vincent\source\tramsitterStopwatch.c:666: tick_count = 0;
0E12 758800    3230            mov     _Timer2_ISR_tick_count_1_149,#0x00
0E15           3231   ;        C:\Vincent\source\tramsitterStopwatch.c:667: timer_tick = 1;  // Signal main loop to update stopwatch
0E15 D2E8      3232            setb    _timer_tick
0E17           3233   L029006?:
0E17 D0D0      3234            pop     psw
0E19 D0E0      3235            pop     acc
0E1B 32        3236            reti
0E1C           3237   ;        eliminated unneeded push/pop dpl
0E1C           3238   ;        eliminated unneeded push/pop dph
0E1C           3239   ;        eliminated unneeded push/pop b
0E1C           3240   ;------------------------------------------------------------
0E1C           3241   ;Allocation info for local variables in function 'Update_Stopwatch_Display'
0E1C           3242   ;------------------------------------------------------------
0E1C           3243   ;percent                   Allocated to registers r2 
0E1C           3244   ;line                      Allocated with name '_Update_Stopwatch_Display_line_1_153'
0E1C           3245   ;------------------------------------------------------------
0E1C           3246   ;        C:\Vincent\source\tramsitterStopwatch.c:672: void Update_Stopwatch_Display(void)
0E1C           3247   ;        -----------------------------------------
0E1C           3248   ;         function Update_Stopwatch_Display
0E1C           3249   ;        -----------------------------------------
0E1C           3250   _Update_Stopwatch_Display:
0E1C           3251   ;        C:\Vincent\source\tramsitterStopwatch.c:677: stopwatch_minutes = (unsigned char)(stopwatch_seconds / 60);
0E1C 75003C    3252            mov     __divuint_PARM_2,#0x3C
0E1F E4        3253            clr     a
0E20 F501      3254            mov     (__divuint_PARM_2 + 1),a
0E22 857882    3255            mov     dpl,_stopwatch_seconds
0E25 857983    3256            mov     dph,(_stopwatch_seconds + 1)
0E28 120000    3257            lcall   __divuint
0E2B AA82      3258            mov     r2,dpl
0E2D 8A28      3259            mov     _stopwatch_minutes,r2
0E2F           3260   ;        C:\Vincent\source\tramsitterStopwatch.c:678: stopwatch_secs = (unsigned char)(stopwatch_seconds % 60);
0E2F 75003C    3261            mov     __moduint_PARM_2,#0x3C
0E32 E4        3262            clr     a
0E33 F501      3263            mov     (__moduint_PARM_2 + 1),a
0E35 857882    3264            mov     dpl,_stopwatch_seconds
0E38 857983    3265            mov     dph,(_stopwatch_seconds + 1)
0E3B 120000    3266            lcall   __moduint
0E3E AA82      3267            mov     r2,dpl
0E40 8AD8      3268            mov     _stopwatch_secs,r2
0E42           3269   ;        C:\Vincent\source\tramsitterStopwatch.c:679: percent = Get_Battery_Percent();
0E42 120000    3270            lcall   _Get_Battery_Percent
0E45 AA82      3271            mov     r2,dpl
0E47           3272   ;        C:\Vincent\source\tramsitterStopwatch.c:682: line[0] = 'T'; line[1] = 'i'; line[2] = 'm'; line[3] = 'e';
0E47 90BDE8    3273            mov     dptr,#_Update_Stopwatch_Display_line_1_153
0E4A 7454      3274            mov     a,#0x54
0E4C F0        3275            movx    @dptr,a
0E4D 90BDE9    3276            mov     dptr,#(_Update_Stopwatch_Display_line_1_153 + 0x0001)
0E50 7469      3277            mov     a,#0x69
0E52 F0        3278            movx    @dptr,a
0E53 90BDEA    3279            mov     dptr,#(_Update_Stopwatch_Display_line_1_153 + 0x0002)
0E56 746D      3280            mov     a,#0x6D
0E58 F0        3281            movx    @dptr,a
0E59 90BDEB    3282            mov     dptr,#(_Update_Stopwatch_Display_line_1_153 + 0x0003)
0E5C 7465      3283            mov     a,#0x65
0E5E F0        3284            movx    @dptr,a
0E5F           3285   ;        C:\Vincent\source\tramsitterStopwatch.c:683: line[4] = ':';
0E5F 90BDEC    3286            mov     dptr,#(_Update_Stopwatch_Display_line_1_153 + 0x0004)
0E62 743A      3287            mov     a,#0x3A
0E64 F0        3288            movx    @dptr,a
0E65           3289   ;        C:\Vincent\source\tramsitterStopwatch.c:687: line[5] = (stopwatch_minutes >= 10) ? ('0' + (stopwatch_minutes / 10)) : ' ';
0E65 C3        3290            clr     c
0E66 E528      3291            mov     a,_stopwatch_minutes
0E68 940A      3292            subb    a,#0x0A
0E6A B3        3293            cpl     c
0E6B E4        3294            clr     a
0E6C 33        3295            rlc     a
0E6D FB        3296            mov     r3,a
0E6E 6000      3297            jz      L030006?
0E70 75F00A    3298            mov     b,#0x0A
0E73 E528      3299            mov     a,_stopwatch_minutes
0E75 84        3300            div     ab
0E76 2430      3301            add     a,#0x30
0E78 FB        3302            mov     r3,a
0E79 8000      3303            sjmp    L030007?
0E7B           3304   L030006?:
0E7B 7B20      3305            mov     r3,#0x20
0E7D           3306   L030007?:
0E7D 90BDED    3307            mov     dptr,#(_Update_Stopwatch_Display_line_1_153 + 0x0005)
0E80 EB        3308            mov     a,r3
0E81 F0        3309            movx    @dptr,a
0E82           3310   ;        C:\Vincent\source\tramsitterStopwatch.c:688: line[6] = '0' + (stopwatch_minutes % 10);
0E82 75F00A    3311            mov     b,#0x0A
0E85 E528      3312            mov     a,_stopwatch_minutes
0E87 84        3313            div     ab
0E88 E5F0      3314            mov     a,b
0E8A 2430      3315            add     a,#0x30
0E8C 90BDEE    3316            mov     dptr,#(_Update_Stopwatch_Display_line_1_153 + 0x0006)
0E8F F0        3317            movx    @dptr,a
0E90           3318   ;        C:\Vincent\source\tramsitterStopwatch.c:689: line[7] = ':';
0E90 90BDEF    3319            mov     dptr,#(_Update_Stopwatch_Display_line_1_153 + 0x0007)
0E93 743A      3320            mov     a,#0x3A
0E95 F0        3321            movx    @dptr,a
0E96           3322   ;        C:\Vincent\source\tramsitterStopwatch.c:690: line[8] = '0' + (stopwatch_secs / 10);
0E96 75F00A    3323            mov     b,#0x0A
0E99 E5D8      3324            mov     a,_stopwatch_secs
0E9B 84        3325            div     ab
0E9C 2430      3326            add     a,#0x30
0E9E 90BDF0    3327            mov     dptr,#(_Update_Stopwatch_Display_line_1_153 + 0x0008)
0EA1 F0        3328            movx    @dptr,a
0EA2           3329   ;        C:\Vincent\source\tramsitterStopwatch.c:691: line[9] = '0' + (stopwatch_secs % 10);
0EA2 75F00A    3330            mov     b,#0x0A
0EA5 E5D8      3331            mov     a,_stopwatch_secs
0EA7 84        3332            div     ab
0EA8 E5F0      3333            mov     a,b
0EAA 2430      3334            add     a,#0x30
0EAC FB        3335            mov     r3,a
0EAD 90BDF1    3336            mov     dptr,#(_Update_Stopwatch_Display_line_1_153 + 0x0009)
0EB0 F0        3337            movx    @dptr,a
0EB1           3338   ;        C:\Vincent\source\tramsitterStopwatch.c:693: line[10] = ' '; // Spacer
0EB1 90BDF2    3339            mov     dptr,#(_Update_Stopwatch_Display_line_1_153 + 0x000a)
0EB4 7420      3340            mov     a,#0x20
0EB6 F0        3341            movx    @dptr,a
0EB7           3342   ;        C:\Vincent\source\tramsitterStopwatch.c:694: line[11] = 'B';
0EB7 90BDF3    3343            mov     dptr,#(_Update_Stopwatch_Display_line_1_153 + 0x000b)
0EBA 7442      3344            mov     a,#0x42
0EBC F0        3345            movx    @dptr,a
0EBD           3346   ;        C:\Vincent\source\tramsitterStopwatch.c:695: line[12] = ':';
0EBD 90BDF4    3347            mov     dptr,#(_Update_Stopwatch_Display_line_1_153 + 0x000c)
0EC0 743A      3348            mov     a,#0x3A
0EC2 F0        3349            movx    @dptr,a
0EC3           3350   ;        C:\Vincent\source\tramsitterStopwatch.c:698: if (percent >= 100) {
0EC3 BA64B0    3351            cjne    r2,#0x64,L030015?
0EC6           3352   L030015?:
0EC6 4000      3353            jc      L030002?
0EC8           3354   ;        C:\Vincent\source\tramsitterStopwatch.c:699: line[13] = '1';
0EC8 90BDF5    3355            mov     dptr,#(_Update_Stopwatch_Display_line_1_153 + 0x000d)
0ECB 7431      3356            mov     a,#0x31
0ECD F0        3357            movx    @dptr,a
0ECE           3358   ;        C:\Vincent\source\tramsitterStopwatch.c:700: line[14] = '0';
0ECE 90BDF6    3359            mov     dptr,#(_Update_Stopwatch_Display_line_1_153 + 0x000e)
0ED1 7430      3360            mov     a,#0x30
0ED3 F0        3361            movx    @dptr,a
0ED4           3362   ;        C:\Vincent\source\tramsitterStopwatch.c:701: line[15] = '0';
0ED4 90BDF7    3363            mov     dptr,#(_Update_Stopwatch_Display_line_1_153 + 0x000f)
0ED7 7430      3364            mov     a,#0x30
0ED9 F0        3365            movx    @dptr,a
0EDA 8000      3366            sjmp    L030003?
0EDC           3367   L030002?:
0EDC           3368   ;        C:\Vincent\source\tramsitterStopwatch.c:703: line[13] = ' '; // Leading space for alignment
0EDC 90BDF5    3369            mov     dptr,#(_Update_Stopwatch_Display_line_1_153 + 0x000d)
0EDF 7420      3370            mov     a,#0x20
0EE1 F0        3371            movx    @dptr,a
0EE2           3372   ;        C:\Vincent\source\tramsitterStopwatch.c:704: line[14] = (percent >= 10) ? ('0' + (percent / 10)) : ' ';
0EE2 BA0A70    3373            cjne    r2,#0x0A,L030017?
0EE5           3374   L030017?:
0EE5 B3        3375            cpl     c
0EE6 E4        3376            clr     a
0EE7 33        3377            rlc     a
0EE8 FB        3378            mov     r3,a
0EE9 6000      3379            jz      L030008?
0EEB 75F00A    3380            mov     b,#0x0A
0EEE EA        3381            mov     a,r2
0EEF 84        3382            div     ab
0EF0 2430      3383            add     a,#0x30
0EF2 FB        3384            mov     r3,a
0EF3 8000      3385            sjmp    L030009?
0EF5           3386   L030008?:
0EF5 7B20      3387            mov     r3,#0x20
0EF7           3388   L030009?:
0EF7 90BDF6    3389            mov     dptr,#(_Update_Stopwatch_Display_line_1_153 + 0x000e)
0EFA EB        3390            mov     a,r3
0EFB F0        3391            movx    @dptr,a
0EFC           3392   ;        C:\Vincent\source\tramsitterStopwatch.c:705: line[15] = '0' + (percent % 10);
0EFC 75F00A    3393            mov     b,#0x0A
0EFF EA        3394            mov     a,r2
0F00 84        3395            div     ab
0F01 E5F0      3396            mov     a,b
0F03 2430      3397            add     a,#0x30
0F05 FA        3398            mov     r2,a
0F06 90BDF7    3399            mov     dptr,#(_Update_Stopwatch_Display_line_1_153 + 0x000f)
0F09 F0        3400            movx    @dptr,a
0F0A           3401   L030003?:
0F0A           3402   ;        C:\Vincent\source\tramsitterStopwatch.c:708: line[16] = '\0'; // Properly terminate at the end of the 16-char buffer
0F0A 90BDF8    3403            mov     dptr,#(_Update_Stopwatch_Display_line_1_153 + 0x0010)
0F0D E4        3404            clr     a
0F0E F0        3405            movx    @dptr,a
0F0F           3406   ;        C:\Vincent\source\tramsitterStopwatch.c:710: LCDprint(line, 1, 1);
0F0F 750801    3407            mov     _LCDprint_PARM_2,#0x01
0F12 D268      3408            setb    _LCDprint_PARM_3
0F14 90BDE8    3409            mov     dptr,#_Update_Stopwatch_Display_line_1_153
0F17 75F000    3410            mov     b,#0x00
0F1A 020000    3411            ljmp    _LCDprint
0F1D           3412   ;------------------------------------------------------------
0F1D           3413   ;Allocation info for local variables in function 'Program_Mode'
0F1D           3414   ;------------------------------------------------------------
0F1D           3415   ;current_option            Allocated to registers r2 
0F1D           3416   ;btn3_held                 Allocated to registers r4 r5 
0F1D           3417   ;i                         Allocated to registers r4 
0F1D           3418   ;rx_ack                    Allocated to registers r3 
0F1D           3419   ;line1                     Allocated with name '_Program_Mode_line1_1_157'
0F1D           3420   ;line2                     Allocated with name '_Program_Mode_line2_1_157'
0F1D           3421   ;------------------------------------------------------------
0F1D           3422   ;        C:\Vincent\source\tramsitterStopwatch.c:716: void Program_Mode(void)
0F1D           3423   ;        -----------------------------------------
0F1D           3424   ;         function Program_Mode
0F1D           3425   ;        -----------------------------------------
0F1D           3426   _Program_Mode:
0F1D           3427   ;        C:\Vincent\source\tramsitterStopwatch.c:718: unsigned char current_option = 3;  // Start with STOP (0=F, 1=L, 2=R, 3=S)
0F1D 7A03      3428            mov     r2,#0x03
0F1F           3429   ;        C:\Vincent\source\tramsitterStopwatch.c:725: program_step = 0;  // Reset step counter
0F1F 75B800    3430            mov     _program_step,#0x00
0F22           3431   ;        C:\Vincent\source\tramsitterStopwatch.c:728: for (i = 0; i < 8; i++) {
0F22 7B00      3432            mov     r3,#0x00
0F24           3433   L031045?:
0F24 BB0870    3434            cjne    r3,#0x08,L031098?
0F27           3435   L031098?:
0F27 5000      3436            jnc     L031048?
0F29           3437   ;        C:\Vincent\source\tramsitterStopwatch.c:729: program_path[i] = 3;  // Default to STOP
0F29 EB        3438            mov     a,r3
0F2A 24C8      3439            add     a,#_program_path
0F2C F582      3440            mov     dpl,a
0F2E E4        3441            clr     a
0F2F 3440      3442            addc    a,#(_program_path >> 8)
0F31 F583      3443            mov     dph,a
0F33 7403      3444            mov     a,#0x03
0F35 F0        3445            movx    @dptr,a
0F36           3446   ;        C:\Vincent\source\tramsitterStopwatch.c:728: for (i = 0; i < 8; i++) {
0F36 0B        3447            inc     r3
0F37 8000      3448            sjmp    L031045?
0F39           3449   L031048?:
0F39           3450   ;        C:\Vincent\source\tramsitterStopwatch.c:733: rx_ack = IR_LoopbackPacket(CMD_PROG_START);
0F39 758260    3451            mov     dpl,#0x60
0F3C C002      3452            push    ar2
0F3E 120000    3453            lcall   _IR_LoopbackPacket
0F41 AB82      3454            mov     r3,dpl
0F43 D002      3455            pop     ar2
0F45           3456   ;        C:\Vincent\source\tramsitterStopwatch.c:736: if (rx_ack == CMD_PROG_START) {
0F45 BB60F0    3457            cjne    r3,#0x60,L031002?
0F48           3458   ;        C:\Vincent\source\tramsitterStopwatch.c:737: LCDprint("Program Mode:   ", 1, 1);
0F48 750801    3459            mov     _LCDprint_PARM_2,#0x01
0F4B D268      3460            setb    _LCDprint_PARM_3
0F4D 900530    3461            mov     dptr,#__str_22
0F50 75F080    3462            mov     b,#0x80
0F53 C002      3463            push    ar2
0F55 120000    3464            lcall   _LCDprint
0F58           3465   ;        C:\Vincent\source\tramsitterStopwatch.c:738: LCDprint("STM32 Ready!    ", 2, 1);
0F58 750802    3466            mov     _LCDprint_PARM_2,#0x02
0F5B D268      3467            setb    _LCDprint_PARM_3
0F5D 900570    3468            mov     dptr,#__str_23
0F60 75F080    3469            mov     b,#0x80
0F63 120000    3470            lcall   _LCDprint
0F66 D002      3471            pop     ar2
0F68 8000      3472            sjmp    L031003?
0F6A           3473   L031002?:
0F6A           3474   ;        C:\Vincent\source\tramsitterStopwatch.c:740: LCDprint("Program Mode:   ", 1, 1);
0F6A 750801    3475            mov     _LCDprint_PARM_2,#0x01
0F6D D268      3476            setb    _LCDprint_PARM_3
0F6F 900530    3477            mov     dptr,#__str_22
0F72 75F080    3478            mov     b,#0x80
0F75 C002      3479            push    ar2
0F77 120000    3480            lcall   _LCDprint
0F7A           3481   ;        C:\Vincent\source\tramsitterStopwatch.c:741: LCDprint("Loading...      ", 2, 1);
0F7A 750802    3482            mov     _LCDprint_PARM_2,#0x02
0F7D D268      3483            setb    _LCDprint_PARM_3
0F7F 9005F0    3484            mov     dptr,#__str_24
0F82 75F080    3485            mov     b,#0x80
0F85 120000    3486            lcall   _LCDprint
0F88 D002      3487            pop     ar2
0F8A           3488   L031003?:
0F8A           3489   ;        C:\Vincent\source\tramsitterStopwatch.c:743: waitms(800);
0F8A 900320    3490            mov     dptr,#0x0320
0F8D C002      3491            push    ar2
0F8F 120000    3492            lcall   _waitms
0F92 D002      3493            pop     ar2
0F94           3494   ;        C:\Vincent\source\tramsitterStopwatch.c:745: while (program_step < 8)
0F94           3495   L031039?:
0F94 74F8      3496            mov     a,#0x100 - 0x08
0F96 25B8      3497            add     a,_program_step
0F98 5000      3498            jnc     L031102?
0F9A 020000    3499            ljmp    L031041?
0F9D           3500   L031102?:
0F9D           3501   ;        C:\Vincent\source\tramsitterStopwatch.c:748: line1[0] = 'S'; line1[1] = 't'; line1[2] = 'e'; line1[3] = 'p';
0F9D 90BE38    3502            mov     dptr,#_Program_Mode_line1_1_157
0FA0 7453      3503            mov     a,#0x53
0FA2 F0        3504            movx    @dptr,a
0FA3 90BE39    3505            mov     dptr,#(_Program_Mode_line1_1_157 + 0x0001)
0FA6 7474      3506            mov     a,#0x74
0FA8 F0        3507            movx    @dptr,a
0FA9 90BE3A    3508            mov     dptr,#(_Program_Mode_line1_1_157 + 0x0002)
0FAC 7465      3509            mov     a,#0x65
0FAE F0        3510            movx    @dptr,a
0FAF 90BE3B    3511            mov     dptr,#(_Program_Mode_line1_1_157 + 0x0003)
0FB2 7470      3512            mov     a,#0x70
0FB4 F0        3513            movx    @dptr,a
0FB5           3514   ;        C:\Vincent\source\tramsitterStopwatch.c:749: line1[4] = ' ';
0FB5 90BE3C    3515            mov     dptr,#(_Program_Mode_line1_1_157 + 0x0004)
0FB8 7420      3516            mov     a,#0x20
0FBA F0        3517            movx    @dptr,a
0FBB           3518   ;        C:\Vincent\source\tramsitterStopwatch.c:750: line1[5] = '0' + (program_step + 1);  // Display as 1-8
0FBB 7431      3519            mov     a,#0x31
0FBD 25B8      3520            add     a,_program_step
0FBF 90BE3D    3521            mov     dptr,#(_Program_Mode_line1_1_157 + 0x0005)
0FC2 F0        3522            movx    @dptr,a
0FC3           3523   ;        C:\Vincent\source\tramsitterStopwatch.c:751: line1[6] = '/'; line1[7] = '8'; line1[8] = ':';
0FC3 90BE3E    3524            mov     dptr,#(_Program_Mode_line1_1_157 + 0x0006)
0FC6 742F      3525            mov     a,#0x2F
0FC8 F0        3526            movx    @dptr,a
0FC9 90BE3F    3527            mov     dptr,#(_Program_Mode_line1_1_157 + 0x0007)
0FCC 7438      3528            mov     a,#0x38
0FCE F0        3529            movx    @dptr,a
0FCF 90BE40    3530            mov     dptr,#(_Program_Mode_line1_1_157 + 0x0008)
0FD2 743A      3531            mov     a,#0x3A
0FD4 F0        3532            movx    @dptr,a
0FD5           3533   ;        C:\Vincent\source\tramsitterStopwatch.c:752: line1[9] = ' '; line1[10] = ' '; line1[11] = ' ';
0FD5 90BE41    3534            mov     dptr,#(_Program_Mode_line1_1_157 + 0x0009)
0FD8 7420      3535            mov     a,#0x20
0FDA F0        3536            movx    @dptr,a
0FDB 90BE42    3537            mov     dptr,#(_Program_Mode_line1_1_157 + 0x000a)
0FDE 7420      3538            mov     a,#0x20
0FE0 F0        3539            movx    @dptr,a
0FE1 90BE43    3540            mov     dptr,#(_Program_Mode_line1_1_157 + 0x000b)
0FE4 7420      3541            mov     a,#0x20
0FE6 F0        3542            movx    @dptr,a
0FE7           3543   ;        C:\Vincent\source\tramsitterStopwatch.c:753: line1[12] = ' '; line1[13] = ' '; line1[14] = ' ';
0FE7 90BE44    3544            mov     dptr,#(_Program_Mode_line1_1_157 + 0x000c)
0FEA 7420      3545            mov     a,#0x20
0FEC F0        3546            movx    @dptr,a
0FED 90BE45    3547            mov     dptr,#(_Program_Mode_line1_1_157 + 0x000d)
0FF0 7420      3548            mov     a,#0x20
0FF2 F0        3549            movx    @dptr,a
0FF3 90BE46    3550            mov     dptr,#(_Program_Mode_line1_1_157 + 0x000e)
0FF6 7420      3551            mov     a,#0x20
0FF8 F0        3552            movx    @dptr,a
0FF9           3553   ;        C:\Vincent\source\tramsitterStopwatch.c:754: line1[15] = ' '; line1[16] = 0;
0FF9 90BE47    3554            mov     dptr,#(_Program_Mode_line1_1_157 + 0x000f)
0FFC 7420      3555            mov     a,#0x20
0FFE F0        3556            movx    @dptr,a
0FFF 90BE48    3557            mov     dptr,#(_Program_Mode_line1_1_157 + 0x0010)
1002 E4        3558            clr     a
1003 F0        3559            movx    @dptr,a
1004           3560   ;        C:\Vincent\source\tramsitterStopwatch.c:757: for (i = 0; i < 8; i++) {
1004 7C00      3561            mov     r4,#0x00
1006           3562   L031049?:
1006 BC0830    3563            cjne    r4,#0x08,L031103?
1009           3564   L031103?:
1009 5000      3565            jnc     L031070?
100B           3566   ;        C:\Vincent\source\tramsitterStopwatch.c:758: line2[i] = Direction_Label(current_option)[i];
100B EC        3567            mov     a,r4
100C 2488      3568            add     a,#_Program_Mode_line2_1_157
100E FD        3569            mov     r5,a
100F E4        3570            clr     a
1010 34BE      3571            addc    a,#(_Program_Mode_line2_1_157 >> 8)
1012 FE        3572            mov     r6,a
1013 8A82      3573            mov     dpl,r2
1015 C002      3574            push    ar2
1017 C004      3575            push    ar4
1019 C005      3576            push    ar5
101B C006      3577            push    ar6
101D 120000    3578            lcall   _Direction_Label
1020 AF82      3579            mov     r7,dpl
1022 A883      3580            mov     r0,dph
1024 A9F0      3581            mov     r1,b
1026 D006      3582            pop     ar6
1028 D005      3583            pop     ar5
102A D004      3584            pop     ar4
102C D002      3585            pop     ar2
102E EC        3586            mov     a,r4
102F 2F        3587            add     a,r7
1030 FF        3588            mov     r7,a
1031 E4        3589            clr     a
1032 38        3590            addc    a,r0
1033 F8        3591            mov     r0,a
1034 8F82      3592            mov     dpl,r7
1036 8883      3593            mov     dph,r0
1038 89F0      3594            mov     b,r1
103A 120000    3595            lcall   __gptrget
103D FF        3596            mov     r7,a
103E 8D82      3597            mov     dpl,r5
1040 8E83      3598            mov     dph,r6
1042 F0        3599            movx    @dptr,a
1043           3600   ;        C:\Vincent\source\tramsitterStopwatch.c:757: for (i = 0; i < 8; i++) {
1043 0C        3601            inc     r4
1044 8000      3602            sjmp    L031049?
1046           3603   L031070?:
1046           3604   L031053?:
1046           3605   ;        C:\Vincent\source\tramsitterStopwatch.c:760: for (; i < 16; i++) line2[i] = ' ';
1046 BC10F0    3606            cjne    r4,#0x10,L031105?
1049           3607   L031105?:
1049 5000      3608            jnc     L031056?
104B EC        3609            mov     a,r4
104C 2488      3610            add     a,#_Program_Mode_line2_1_157
104E F582      3611            mov     dpl,a
1050 E4        3612            clr     a
1051 34BE      3613            addc    a,#(_Program_Mode_line2_1_157 >> 8)
1053 F583      3614            mov     dph,a
1055 7420      3615            mov     a,#0x20
1057 F0        3616            movx    @dptr,a
1058 0C        3617            inc     r4
1059 8000      3618            sjmp    L031053?
105B           3619   L031056?:
105B           3620   ;        C:\Vincent\source\tramsitterStopwatch.c:761: line2[16] = 0;
105B 90BE98    3621            mov     dptr,#(_Program_Mode_line2_1_157 + 0x0010)
105E E4        3622            clr     a
105F F0        3623            movx    @dptr,a
1060           3624   ;        C:\Vincent\source\tramsitterStopwatch.c:763: LCDprint(line1, 1, 1);
1060 750801    3625            mov     _LCDprint_PARM_2,#0x01
1063 D268      3626            setb    _LCDprint_PARM_3
1065 90BE38    3627            mov     dptr,#_Program_Mode_line1_1_157
1068 75F000    3628            mov     b,#0x00
106B C002      3629            push    ar2
106D 120000    3630            lcall   _LCDprint
1070           3631   ;        C:\Vincent\source\tramsitterStopwatch.c:764: LCDprint(line2, 2, 1);
1070 750802    3632            mov     _LCDprint_PARM_2,#0x02
1073 D268      3633            setb    _LCDprint_PARM_3
1075 90BE88    3634            mov     dptr,#_Program_Mode_line2_1_157
1078 75F000    3635            mov     b,#0x00
107B 120000    3636            lcall   _LCDprint
107E D002      3637            pop     ar2
1080           3638   ;        C:\Vincent\source\tramsitterStopwatch.c:767: if (BTN1 == 0)
1080 20A570    3639            jb      _P2_5,L031037?
1083           3640   ;        C:\Vincent\source\tramsitterStopwatch.c:769: waitms(20);  // Debounce
1083 900014    3641            mov     dptr,#0x0014
1086 C002      3642            push    ar2
1088 120000    3643            lcall   _waitms
108B D002      3644            pop     ar2
108D           3645   ;        C:\Vincent\source\tramsitterStopwatch.c:770: if (BTN1 == 0)
108D 30A5B0    3646            jnb     _P2_5,L031108?
1090 020000    3647            ljmp    L031038?
1093           3648   L031108?:
1093           3649   ;        C:\Vincent\source\tramsitterStopwatch.c:772: current_option++;
1093 0A        3650            inc     r2
1094           3651   ;        C:\Vincent\source\tramsitterStopwatch.c:773: if (current_option > 3) current_option = 0;
1094 EA        3652            mov     a,r2
1095 24FC      3653            add     a,#0xff - 0x03
1097 5000      3654            jnc     L031006?
1099 7A00      3655            mov     r2,#0x00
109B           3656   ;        C:\Vincent\source\tramsitterStopwatch.c:775: while (BTN1 == 0);  // Wait for release
109B           3657   L031006?:
109B 30A530    3658            jnb     _P2_5,L031006?
109E           3659   ;        C:\Vincent\source\tramsitterStopwatch.c:776: waitms(100);
109E 900064    3660            mov     dptr,#0x0064
10A1 C002      3661            push    ar2
10A3 120000    3662            lcall   _waitms
10A6 D002      3663            pop     ar2
10A8 020000    3664            ljmp    L031038?
10AB           3665   L031037?:
10AB           3666   ;        C:\Vincent\source\tramsitterStopwatch.c:781: else if (BTN2 == 0)
10AB 20A470    3667            jb      _P2_4,L031034?
10AE           3668   ;        C:\Vincent\source\tramsitterStopwatch.c:783: waitms(20);  // Debounce
10AE 900014    3669            mov     dptr,#0x0014
10B1 C002      3670            push    ar2
10B3 120000    3671            lcall   _waitms
10B6 D002      3672            pop     ar2
10B8           3673   ;        C:\Vincent\source\tramsitterStopwatch.c:784: if (BTN2 == 0)
10B8 30A4B0    3674            jnb     _P2_4,L031112?
10BB 020000    3675            ljmp    L031038?
10BE           3676   L031112?:
10BE           3677   ;        C:\Vincent\source\tramsitterStopwatch.c:786: if (current_option == 0) current_option = 3;
10BE EA        3678            mov     a,r2
10BF 7000      3679            jnz     L031012?
10C1 7A03      3680            mov     r2,#0x03
10C3 8000      3681            sjmp    L031014?
10C5           3682   L031012?:
10C5           3683   ;        C:\Vincent\source\tramsitterStopwatch.c:787: else current_option--;
10C5 1A        3684            dec     r2
10C6           3685   ;        C:\Vincent\source\tramsitterStopwatch.c:789: while (BTN2 == 0);  // Wait for release
10C6           3686   L031014?:
10C6 30A430    3687            jnb     _P2_4,L031014?
10C9           3688   ;        C:\Vincent\source\tramsitterStopwatch.c:790: waitms(100);
10C9 900064    3689            mov     dptr,#0x0064
10CC C002      3690            push    ar2
10CE 120000    3691            lcall   _waitms
10D1 D002      3692            pop     ar2
10D3 020000    3693            ljmp    L031038?
10D6           3694   L031034?:
10D6           3695   ;        C:\Vincent\source\tramsitterStopwatch.c:795: else if (BTN3 == 0)
10D6 30A670    3696            jnb     _P2_6,L031115?
10D9 020000    3697            ljmp    L031038?
10DC           3698   L031115?:
10DC           3699   ;        C:\Vincent\source\tramsitterStopwatch.c:797: waitms(20);  // Debounce
10DC 900014    3700            mov     dptr,#0x0014
10DF C002      3701            push    ar2
10E1 120000    3702            lcall   _waitms
10E4 D002      3703            pop     ar2
10E6           3704   ;        C:\Vincent\source\tramsitterStopwatch.c:798: if (BTN3 == 0)
10E6 30A6B0    3705            jnb     _P2_6,L031116?
10E9 020000    3706            ljmp    L031038?
10EC           3707   L031116?:
10EC           3708   ;        C:\Vincent\source\tramsitterStopwatch.c:803: while (BTN3 == 0 && btn3_held < 1200)
10EC 7C00      3709            mov     r4,#0x00
10EE 7D00      3710            mov     r5,#0x00
10F0           3711   L031020?:
10F0 20A630    3712            jb      _P2_6,L031022?
10F3 C3        3713            clr     c
10F4 EC        3714            mov     a,r4
10F5 94B0      3715            subb    a,#0xB0
10F7 ED        3716            mov     a,r5
10F8 9404      3717            subb    a,#0x04
10FA 5000      3718            jnc     L031022?
10FC           3719   ;        C:\Vincent\source\tramsitterStopwatch.c:805: waitms(10);
10FC 90000A    3720            mov     dptr,#0x000A
10FF C002      3721            push    ar2
1101 C004      3722            push    ar4
1103 C005      3723            push    ar5
1105 120000    3724            lcall   _waitms
1108 D005      3725            pop     ar5
110A D004      3726            pop     ar4
110C D002      3727            pop     ar2
110E           3728   ;        C:\Vincent\source\tramsitterStopwatch.c:806: btn3_held += 10;
110E 740A      3729            mov     a,#0x0A
1110 2C        3730            add     a,r4
1111 FC        3731            mov     r4,a
1112 E4        3732            clr     a
1113 3D        3733            addc    a,r5
1114 FD        3734            mov     r5,a
1115 8000      3735            sjmp    L031020?
1117           3736   L031022?:
1117           3737   ;        C:\Vincent\source\tramsitterStopwatch.c:809: if (btn3_held >= BTN3_LONG_MS)
1117 C3        3738            clr     c
1118 EC        3739            mov     a,r4
1119 94E8      3740            subb    a,#0xE8
111B ED        3741            mov     a,r5
111C 9403      3742            subb    a,#0x03
111E 5000      3743            jnc     L031119?
1120 020000    3744            ljmp    L031027?
1123           3745   L031119?:
1123           3746   ;        C:\Vincent\source\tramsitterStopwatch.c:812: program_path[program_step] = current_option;
1123 E5B8      3747            mov     a,_program_step
1125 24C8      3748            add     a,#_program_path
1127 F582      3749            mov     dpl,a
1129 E4        3750            clr     a
112A 3440      3751            addc    a,#(_program_path >> 8)
112C F583      3752            mov     dph,a
112E EA        3753            mov     a,r2
112F F0        3754            movx    @dptr,a
1130           3755   ;        C:\Vincent\source\tramsitterStopwatch.c:815: IR_LoopbackByte(CMD_PROG_STEP);
1130 758261    3756            mov     dpl,#0x61
1133 C002      3757            push    ar2
1135 120000    3758            lcall   _IR_LoopbackByte
1138           3759   ;        C:\Vincent\source\tramsitterStopwatch.c:816: IR_LoopbackByte(program_step);
1138 85B882    3760            mov     dpl,_program_step
113B 120000    3761            lcall   _IR_LoopbackByte
113E D002      3762            pop     ar2
1140           3763   ;        C:\Vincent\source\tramsitterStopwatch.c:817: IR_LoopbackByte(current_option);
1140 8A82      3764            mov     dpl,r2
1142 C002      3765            push    ar2
1144 120000    3766            lcall   _IR_LoopbackByte
1147 D002      3767            pop     ar2
1149           3768   ;        C:\Vincent\source\tramsitterStopwatch.c:818: IR_LoopbackByte((unsigned char)(0xFF - CMD_PROG_STEP - program_step - current_option));
1149 749E      3769            mov     a,#0x9E
114B C3        3770            clr     c
114C 95B8      3771            subb    a,_program_step
114E C3        3772            clr     c
114F 9A        3773            subb    a,r2
1150 F582      3774            mov     dpl,a
1152 120000    3775            lcall   _IR_LoopbackByte
1155           3776   ;        C:\Vincent\source\tramsitterStopwatch.c:819: IR_TX = 0;
1155 C294      3777            clr     _P1_4
1157           3778   ;        C:\Vincent\source\tramsitterStopwatch.c:820: waitms(100);  // INCREASED: Give STM32 time to beep
1157 900064    3779            mov     dptr,#0x0064
115A 120000    3780            lcall   _waitms
115D           3781   ;        C:\Vincent\source\tramsitterStopwatch.c:822: program_step++;
115D 05B8      3782            inc     _program_step
115F           3783   ;        C:\Vincent\source\tramsitterStopwatch.c:825: for (i = program_step; i < 8; i++)
115F ACB8      3784            mov     r4,_program_step
1161           3785   L031057?:
1161 BC0830    3786            cjne    r4,#0x08,L031120?
1164           3787   L031120?:
1164 4000      3788            jc      L031121?
1166 020000    3789            ljmp    L031041?
1169           3790   L031121?:
1169           3791   ;        C:\Vincent\source\tramsitterStopwatch.c:827: program_path[i] = 3;  // STOP
1169 EC        3792            mov     a,r4
116A 24C8      3793            add     a,#_program_path
116C F582      3794            mov     dpl,a
116E E4        3795            clr     a
116F 3440      3796            addc    a,#(_program_path >> 8)
1171 F583      3797            mov     dph,a
1173 7403      3798            mov     a,#0x03
1175 F0        3799            movx    @dptr,a
1176           3800   ;        C:\Vincent\source\tramsitterStopwatch.c:830: IR_LoopbackByte(CMD_PROG_STEP);
1176 758261    3801            mov     dpl,#0x61
1179 C004      3802            push    ar4
117B 120000    3803            lcall   _IR_LoopbackByte
117E D004      3804            pop     ar4
1180           3805   ;        C:\Vincent\source\tramsitterStopwatch.c:831: IR_LoopbackByte(i);
1180 8C82      3806            mov     dpl,r4
1182 C004      3807            push    ar4
1184 120000    3808            lcall   _IR_LoopbackByte
1187           3809   ;        C:\Vincent\source\tramsitterStopwatch.c:832: IR_LoopbackByte(3);  // STOP
1187 758203    3810            mov     dpl,#0x03
118A 120000    3811            lcall   _IR_LoopbackByte
118D D004      3812            pop     ar4
118F           3813   ;        C:\Vincent\source\tramsitterStopwatch.c:833: IR_LoopbackByte((unsigned char)(0xFF - CMD_PROG_STEP - i - 3));
118F 749B      3814            mov     a,#0x9B
1191 C3        3815            clr     c
1192 9C        3816            subb    a,r4
1193 F582      3817            mov     dpl,a
1195 C004      3818            push    ar4
1197 120000    3819            lcall   _IR_LoopbackByte
119A           3820   ;        C:\Vincent\source\tramsitterStopwatch.c:834: IR_TX = 0;
119A C294      3821            clr     _P1_4
119C           3822   ;        C:\Vincent\source\tramsitterStopwatch.c:835: waitms(100);  // INCREASED: Give STM32 time to beep
119C 900064    3823            mov     dptr,#0x0064
119F 120000    3824            lcall   _waitms
11A2 D004      3825            pop     ar4
11A4           3826   ;        C:\Vincent\source\tramsitterStopwatch.c:825: for (i = program_step; i < 8; i++)
11A4 0C        3827            inc     r4
11A5           3828   ;        C:\Vincent\source\tramsitterStopwatch.c:839: break;
11A5 8000      3829            sjmp    L031057?
11A7           3830   L031027?:
11A7           3831   ;        C:\Vincent\source\tramsitterStopwatch.c:844: program_path[program_step] = current_option;
11A7 E5B8      3832            mov     a,_program_step
11A9 24C8      3833            add     a,#_program_path
11AB F582      3834            mov     dpl,a
11AD E4        3835            clr     a
11AE 3440      3836            addc    a,#(_program_path >> 8)
11B0 F583      3837            mov     dph,a
11B2 EA        3838            mov     a,r2
11B3 F0        3839            movx    @dptr,a
11B4           3840   ;        C:\Vincent\source\tramsitterStopwatch.c:847: IR_LoopbackByte(CMD_PROG_STEP);
11B4 758261    3841            mov     dpl,#0x61
11B7 C002      3842            push    ar2
11B9 120000    3843            lcall   _IR_LoopbackByte
11BC           3844   ;        C:\Vincent\source\tramsitterStopwatch.c:848: IR_LoopbackByte(program_step);
11BC 85B882    3845            mov     dpl,_program_step
11BF 120000    3846            lcall   _IR_LoopbackByte
11C2 D002      3847            pop     ar2
11C4           3848   ;        C:\Vincent\source\tramsitterStopwatch.c:849: IR_LoopbackByte(current_option);
11C4 8A82      3849            mov     dpl,r2
11C6 C002      3850            push    ar2
11C8 120000    3851            lcall   _IR_LoopbackByte
11CB D002      3852            pop     ar2
11CD           3853   ;        C:\Vincent\source\tramsitterStopwatch.c:850: IR_LoopbackByte((unsigned char)(0xFF - CMD_PROG_STEP - program_step - current_option));
11CD 749E      3854            mov     a,#0x9E
11CF C3        3855            clr     c
11D0 95B8      3856            subb    a,_program_step
11D2 C3        3857            clr     c
11D3 9A        3858            subb    a,r2
11D4 F582      3859            mov     dpl,a
11D6 120000    3860            lcall   _IR_LoopbackByte
11D9           3861   ;        C:\Vincent\source\tramsitterStopwatch.c:851: IR_TX = 0;
11D9 C294      3862            clr     _P1_4
11DB           3863   ;        C:\Vincent\source\tramsitterStopwatch.c:852: waitms(100);  // INCREASED: Give STM32 time to beep
11DB 900064    3864            mov     dptr,#0x0064
11DE 120000    3865            lcall   _waitms
11E1           3866   ;        C:\Vincent\source\tramsitterStopwatch.c:854: program_step++;
11E1 05B8      3867            inc     _program_step
11E3           3868   ;        C:\Vincent\source\tramsitterStopwatch.c:857: current_option = 3;
11E3 7A03      3869            mov     r2,#0x03
11E5           3870   ;        C:\Vincent\source\tramsitterStopwatch.c:859: while (BTN3 == 0);  // Wait for release
11E5           3871   L031023?:
11E5 30A6B0    3872            jnb     _P2_6,L031023?
11E8           3873   ;        C:\Vincent\source\tramsitterStopwatch.c:860: waitms(100);
11E8 900064    3874            mov     dptr,#0x0064
11EB C002      3875            push    ar2
11ED 120000    3876            lcall   _waitms
11F0 D002      3877            pop     ar2
11F2           3878   L031038?:
11F2           3879   ;        C:\Vincent\source\tramsitterStopwatch.c:865: waitms(50);
11F2 900032    3880            mov     dptr,#0x0032
11F5 C002      3881            push    ar2
11F7 120000    3882            lcall   _waitms
11FA D002      3883            pop     ar2
11FC 020000    3884            ljmp    L031039?
11FF           3885   L031041?:
11FF           3886   ;        C:\Vincent\source\tramsitterStopwatch.c:869: rx_ack = IR_LoopbackPacket(CMD_PROG_END);
11FF 758262    3887            mov     dpl,#0x62
1202 120000    3888            lcall   _IR_LoopbackPacket
1205 AB82      3889            mov     r3,dpl
1207           3890   ;        C:\Vincent\source\tramsitterStopwatch.c:870: waitms(100);  // Give STM32 time to beep 3 times
1207 900064    3891            mov     dptr,#0x0064
120A C003      3892            push    ar3
120C 120000    3893            lcall   _waitms
120F           3894   ;        C:\Vincent\source\tramsitterStopwatch.c:873: LCDprint("Path 4 Saved!   ", 1, 1);
120F 750801    3895            mov     _LCDprint_PARM_2,#0x01
1212 D268      3896            setb    _LCDprint_PARM_3
1214 900CF0    3897            mov     dptr,#__str_25
1217 75F080    3898            mov     b,#0x80
121A 120000    3899            lcall   _LCDprint
121D D003      3900            pop     ar3
121F           3901   ;        C:\Vincent\source\tramsitterStopwatch.c:874: if (rx_ack == CMD_PROG_END) {
121F BB6230    3902            cjne    r3,#0x62,L031043?
1222           3903   ;        C:\Vincent\source\tramsitterStopwatch.c:875: LCDprint("Path Received    ", 2, 1);
1222 750802    3904            mov     _LCDprint_PARM_2,#0x02
1225 D268      3905            setb    _LCDprint_PARM_3
1227 900D70    3906            mov     dptr,#__str_26
122A 75F080    3907            mov     b,#0x80
122D 120000    3908            lcall   _LCDprint
1230 8000      3909            sjmp    L031044?
1232           3910   L031043?:
1232           3911   ;        C:\Vincent\source\tramsitterStopwatch.c:877: LCDprint("Loading...      ", 2, 1);
1232 750802    3912            mov     _LCDprint_PARM_2,#0x02
1235 D268      3913            setb    _LCDprint_PARM_3
1237 9005F0    3914            mov     dptr,#__str_24
123A 75F080    3915            mov     b,#0x80
123D 120000    3916            lcall   _LCDprint
1240           3917   L031044?:
1240           3918   ;        C:\Vincent\source\tramsitterStopwatch.c:879: waitms(1500);
1240 9005DC    3919            mov     dptr,#0x05DC
1243 020000    3920            ljmp    _waitms
1246           3921   ;------------------------------------------------------------
1246           3922   ;Allocation info for local variables in function 'main'
1246           3923   ;------------------------------------------------------------
1246           3924   ;cmd                       Allocated to registers r2 
1246           3925   ;rx                        Allocated to registers 
1246           3926   ;last_joystick             Allocated to registers 
1246           3927   ;urx                       Allocated to registers r3 r4 
1246           3928   ;ury                       Allocated to registers r5 r6 
1246           3929   ;i                         Allocated with name '_main_i_1_176'
1246           3930   ;btn1_held                 Allocated to registers r2 r3 
1246           3931   ;btn2_held                 Allocated to registers r2 r3 
1246           3932   ;btn3_held                 Allocated to registers r2 r3 
1246           3933   ;entered_pass              Allocated to registers r2 
1246           3934   ;battery_percent           Allocated to registers r2 
1246           3935   ;battery_percent_carr      Allocated with name '_main_battery_percent_carr_1_176'
1246           3936   ;carr_idx                  Allocated to registers r2 r3 
1246           3937   ;line2                     Allocated with name '_main_line2_1_176'
1246           3938   ;------------------------------------------------------------
1246           3939   ;        C:\Vincent\source\tramsitterStopwatch.c:885: void main(void)
1246           3940   ;        -----------------------------------------
1246           3941   ;         function main
1246           3942   ;        -----------------------------------------
1246           3943   _main:
1246           3944   ;        C:\Vincent\source\tramsitterStopwatch.c:897: InitPinADC(2, 1);  // Joystick X
1246 75C801    3945            mov     _InitPinADC_PARM_2,#0x01
1249 758202    3946            mov     dpl,#0x02
124C 120000    3947            lcall   _InitPinADC
124F           3948   ;        C:\Vincent\source\tramsitterStopwatch.c:898: InitPinADC(2, 2);  // Joystick Y
124F 75C802    3949            mov     _InitPinADC_PARM_2,#0x02
1252 758202    3950            mov     dpl,#0x02
1255 120000    3951            lcall   _InitPinADC
1258           3952   ;        C:\Vincent\source\tramsitterStopwatch.c:899: InitPinADC(1, 6);  // Battery voltage
1258 75C806    3953            mov     _InitPinADC_PARM_2,#0x06
125B 758201    3954            mov     dpl,#0x01
125E 120000    3955            lcall   _InitPinADC
1261           3956   ;        C:\Vincent\source\tramsitterStopwatch.c:900: InitADC();
1261 120000    3957            lcall   _InitADC
1264           3958   ;        C:\Vincent\source\tramsitterStopwatch.c:901: waitms(300);
1264 90012C    3959            mov     dptr,#0x012C
1267 120000    3960            lcall   _waitms
126A           3961   ;        C:\Vincent\source\tramsitterStopwatch.c:902: LCD_4BIT();
126A 120000    3962            lcall   _LCD_4BIT
126D           3963   ;        C:\Vincent\source\tramsitterStopwatch.c:905: Init_Timer2_1Hz();
126D 120000    3964            lcall   _Init_Timer2_1Hz
1270           3965   ;        C:\Vincent\source\tramsitterStopwatch.c:906: EA = 1;  // Enable global interrupts
1270 D2AF      3966            setb    _EA
1272           3967   ;        C:\Vincent\source\tramsitterStopwatch.c:911: LCDprint("Set Password:   ", 1, 1);
1272 750801    3968            mov     _LCDprint_PARM_2,#0x01
1275 D268      3969            setb    _LCDprint_PARM_3
1277 900DF0    3970            mov     dptr,#__str_27
127A 75F080    3971            mov     b,#0x80
127D 120000    3972            lcall   _LCDprint
1280           3973   ;        C:\Vincent\source\tramsitterStopwatch.c:912: LCDprint("Pass: 0000      ", 2, 1);
1280 750802    3974            mov     _LCDprint_PARM_2,#0x02
1283 D268      3975            setb    _LCDprint_PARM_3
1285 900E30    3976            mov     dptr,#__str_28
1288 75F080    3977            mov     b,#0x80
128B 120000    3978            lcall   _LCDprint
128E           3979   ;        C:\Vincent\source\tramsitterStopwatch.c:913: waitms(1000);
128E 9003E8    3980            mov     dptr,#0x03E8
1291 120000    3981            lcall   _waitms
1294           3982   ;        C:\Vincent\source\tramsitterStopwatch.c:915: saved_password = Password_Entry_Screen("Set Password:   ");
1294 900DF0    3983            mov     dptr,#__str_27
1297 75F080    3984            mov     b,#0x80
129A 120000    3985            lcall   _Password_Entry_Screen
129D 8582F8    3986            mov     _saved_password,dpl
12A0           3987   ;        C:\Vincent\source\tramsitterStopwatch.c:916: password_set = 1;
12A0 D2B8      3988            setb    _password_set
12A2           3989   ;        C:\Vincent\source\tramsitterStopwatch.c:919: LCDprint("Password Set!   ", 1, 1);
12A2 750801    3990            mov     _LCDprint_PARM_2,#0x01
12A5 D268      3991            setb    _LCDprint_PARM_3
12A7 900E70    3992            mov     dptr,#__str_29
12AA 75F080    3993            mov     b,#0x80
12AD 120000    3994            lcall   _LCDprint
12B0           3995   ;        C:\Vincent\source\tramsitterStopwatch.c:920: waitms(1000);
12B0 9003E8    3996            mov     dptr,#0x03E8
12B3 120000    3997            lcall   _waitms
12B6           3998   ;        C:\Vincent\source\tramsitterStopwatch.c:925: for (i=0; i<30; i++) {
12B6 75C800    3999            mov     _main_i_1_176,#0x00
12B9           4000   L032093?:
12B9 74E2      4001            mov     a,#0x100 - 0x1E
12BB 25C8      4002            add     a,_main_i_1_176
12BD 5000      4003            jnc     L032169?
12BF 020000    4004            ljmp    L032096?
12C2           4005   L032169?:
12C2           4006   ;        C:\Vincent\source\tramsitterStopwatch.c:926: urx = ADC_at_Pin(JOY_URX_CH);
12C2 75820E    4007            mov     dpl,#0x0E
12C5 120000    4008            lcall   _ADC_at_Pin
12C8 AB82      4009            mov     r3,dpl
12CA AC83      4010            mov     r4,dph
12CC           4011   ;        C:\Vincent\source\tramsitterStopwatch.c:927: ury = ADC_at_Pin(JOY_URY_CH);
12CC 75820F    4012            mov     dpl,#0x0F
12CF C003      4013            push    ar3
12D1 C004      4014            push    ar4
12D3 120000    4015            lcall   _ADC_at_Pin
12D6 AD82      4016            mov     r5,dpl
12D8 AE83      4017            mov     r6,dph
12DA D004      4018            pop     ar4
12DC D003      4019            pop     ar3
12DE           4020   ;        C:\Vincent\source\tramsitterStopwatch.c:928: line2[0]='X'; line2[1]='=';
12DE 90BED8    4021            mov     dptr,#_main_line2_1_176
12E1 7458      4022            mov     a,#0x58
12E3 F0        4023            movx    @dptr,a
12E4 90BED9    4024            mov     dptr,#(_main_line2_1_176 + 0x0001)
12E7 743D      4025            mov     a,#0x3D
12E9 F0        4026            movx    @dptr,a
12EA           4027   ;        C:\Vincent\source\tramsitterStopwatch.c:929: line2[2]='0'+((urx/10000)%10);
12EA 750010    4028            mov     __divuint_PARM_2,#0x10
12ED 750127    4029            mov     (__divuint_PARM_2 + 1),#0x27
12F0 8B82      4030            mov     dpl,r3
12F2 8C83      4031            mov     dph,r4
12F4 C003      4032            push    ar3
12F6 C004      4033            push    ar4
12F8 C005      4034            push    ar5
12FA C006      4035            push    ar6
12FC 120000    4036            lcall   __divuint
12FF AF82      4037            mov     r7,dpl
1301 AA83      4038            mov     r2,dph
1303 75000A    4039            mov     __moduint_PARM_2,#0x0A
1306 E4        4040            clr     a
1307 F501      4041            mov     (__moduint_PARM_2 + 1),a
1309 8F82      4042            mov     dpl,r7
130B 8A83      4043            mov     dph,r2
130D 120000    4044            lcall   __moduint
1310 AA82      4045            mov     r2,dpl
1312 D006      4046            pop     ar6
1314 D005      4047            pop     ar5
1316 D004      4048            pop     ar4
1318 D003      4049            pop     ar3
131A 7430      4050            mov     a,#0x30
131C 2A        4051            add     a,r2
131D 90BEDA    4052            mov     dptr,#(_main_line2_1_176 + 0x0002)
1320 F0        4053            movx    @dptr,a
1321           4054   ;        C:\Vincent\source\tramsitterStopwatch.c:930: line2[3]='0'+((urx/1000)%10);
1321 7500E8    4055            mov     __divuint_PARM_2,#0xE8
1324 750103    4056            mov     (__divuint_PARM_2 + 1),#0x03
1327 8B82      4057            mov     dpl,r3
1329 8C83      4058            mov     dph,r4
132B C003      4059            push    ar3
132D C004      4060            push    ar4
132F C005      4061            push    ar5
1331 C006      4062            push    ar6
1333 120000    4063            lcall   __divuint
1336 AA82      4064            mov     r2,dpl
1338 AF83      4065            mov     r7,dph
133A 75000A    4066            mov     __moduint_PARM_2,#0x0A
133D E4        4067            clr     a
133E F501      4068            mov     (__moduint_PARM_2 + 1),a
1340 8A82      4069            mov     dpl,r2
1342 8F83      4070            mov     dph,r7
1344 120000    4071            lcall   __moduint
1347 AA82      4072            mov     r2,dpl
1349 D006      4073            pop     ar6
134B D005      4074            pop     ar5
134D D004      4075            pop     ar4
134F D003      4076            pop     ar3
1351 7430      4077            mov     a,#0x30
1353 2A        4078            add     a,r2
1354 90BEDB    4079            mov     dptr,#(_main_line2_1_176 + 0x0003)
1357 F0        4080            movx    @dptr,a
1358           4081   ;        C:\Vincent\source\tramsitterStopwatch.c:931: line2[4]='0'+((urx/100)%10);
1358 750064    4082            mov     __divuint_PARM_2,#0x64
135B E4        4083            clr     a
135C F501      4084            mov     (__divuint_PARM_2 + 1),a
135E 8B82      4085            mov     dpl,r3
1360 8C83      4086            mov     dph,r4
1362 C003      4087            push    ar3
1364 C004      4088            push    ar4
1366 C005      4089            push    ar5
1368 C006      4090            push    ar6
136A 120000    4091            lcall   __divuint
136D AA82      4092            mov     r2,dpl
136F AF83      4093            mov     r7,dph
1371 75000A    4094            mov     __moduint_PARM_2,#0x0A
1374 E4        4095            clr     a
1375 F501      4096            mov     (__moduint_PARM_2 + 1),a
1377 8A82      4097            mov     dpl,r2
1379 8F83      4098            mov     dph,r7
137B 120000    4099            lcall   __moduint
137E AA82      4100            mov     r2,dpl
1380 D006      4101            pop     ar6
1382 D005      4102            pop     ar5
1384 D004      4103            pop     ar4
1386 D003      4104            pop     ar3
1388 7430      4105            mov     a,#0x30
138A 2A        4106            add     a,r2
138B 90BEDC    4107            mov     dptr,#(_main_line2_1_176 + 0x0004)
138E F0        4108            movx    @dptr,a
138F           4109   ;        C:\Vincent\source\tramsitterStopwatch.c:932: line2[5]='0'+((urx/10)%10);
138F 75000A    4110            mov     __divuint_PARM_2,#0x0A
1392 E4        4111            clr     a
1393 F501      4112            mov     (__divuint_PARM_2 + 1),a
1395 8B82      4113            mov     dpl,r3
1397 8C83      4114            mov     dph,r4
1399 C003      4115            push    ar3
139B C004      4116            push    ar4
139D C005      4117            push    ar5
139F C006      4118            push    ar6
13A1 120000    4119            lcall   __divuint
13A4 AA82      4120            mov     r2,dpl
13A6 AF83      4121            mov     r7,dph
13A8 75000A    4122            mov     __moduint_PARM_2,#0x0A
13AB E4        4123            clr     a
13AC F501      4124            mov     (__moduint_PARM_2 + 1),a
13AE 8A82      4125            mov     dpl,r2
13B0 8F83      4126            mov     dph,r7
13B2 120000    4127            lcall   __moduint
13B5 AA82      4128            mov     r2,dpl
13B7 D006      4129            pop     ar6
13B9 D005      4130            pop     ar5
13BB D004      4131            pop     ar4
13BD D003      4132            pop     ar3
13BF 7430      4133            mov     a,#0x30
13C1 2A        4134            add     a,r2
13C2 90BEDD    4135            mov     dptr,#(_main_line2_1_176 + 0x0005)
13C5 F0        4136            movx    @dptr,a
13C6           4137   ;        C:\Vincent\source\tramsitterStopwatch.c:933: line2[6]='0'+(urx%10);
13C6 75000A    4138            mov     __moduint_PARM_2,#0x0A
13C9 E4        4139            clr     a
13CA F501      4140            mov     (__moduint_PARM_2 + 1),a
13CC 8B82      4141            mov     dpl,r3
13CE 8C83      4142            mov     dph,r4
13D0 C005      4143            push    ar5
13D2 C006      4144            push    ar6
13D4 120000    4145            lcall   __moduint
13D7 AA82      4146            mov     r2,dpl
13D9 D006      4147            pop     ar6
13DB D005      4148            pop     ar5
13DD 7430      4149            mov     a,#0x30
13DF 2A        4150            add     a,r2
13E0 90BEDE    4151            mov     dptr,#(_main_line2_1_176 + 0x0006)
13E3 F0        4152            movx    @dptr,a
13E4           4153   ;        C:\Vincent\source\tramsitterStopwatch.c:934: line2[7]=' ';
13E4 90BEDF    4154            mov     dptr,#(_main_line2_1_176 + 0x0007)
13E7 7420      4155            mov     a,#0x20
13E9 F0        4156            movx    @dptr,a
13EA           4157   ;        C:\Vincent\source\tramsitterStopwatch.c:935: line2[8]='Y'; line2[9]='=';
13EA 90BEE0    4158            mov     dptr,#(_main_line2_1_176 + 0x0008)
13ED 7459      4159            mov     a,#0x59
13EF F0        4160            movx    @dptr,a
13F0 90BEE1    4161            mov     dptr,#(_main_line2_1_176 + 0x0009)
13F3 743D      4162            mov     a,#0x3D
13F5 F0        4163            movx    @dptr,a
13F6           4164   ;        C:\Vincent\source\tramsitterStopwatch.c:936: line2[10]='0'+((ury/10000)%10);
13F6 750010    4165            mov     __divuint_PARM_2,#0x10
13F9 750127    4166            mov     (__divuint_PARM_2 + 1),#0x27
13FC 8D82      4167            mov     dpl,r5
13FE 8E83      4168            mov     dph,r6
1400 C005      4169            push    ar5
1402 C006      4170            push    ar6
1404 120000    4171            lcall   __divuint
1407 AA82      4172            mov     r2,dpl
1409 AB83      4173            mov     r3,dph
140B 75000A    4174            mov     __moduint_PARM_2,#0x0A
140E E4        4175            clr     a
140F F501      4176            mov     (__moduint_PARM_2 + 1),a
1411 8A82      4177            mov     dpl,r2
1413 8B83      4178            mov     dph,r3
1415 120000    4179            lcall   __moduint
1418 AA82      4180            mov     r2,dpl
141A D006      4181            pop     ar6
141C D005      4182            pop     ar5
141E 7430      4183            mov     a,#0x30
1420 2A        4184            add     a,r2
1421 90BEE2    4185            mov     dptr,#(_main_line2_1_176 + 0x000a)
1424 F0        4186            movx    @dptr,a
1425           4187   ;        C:\Vincent\source\tramsitterStopwatch.c:937: line2[11]='0'+((ury/1000)%10);
1425 7500E8    4188            mov     __divuint_PARM_2,#0xE8
1428 750103    4189            mov     (__divuint_PARM_2 + 1),#0x03
142B 8D82      4190            mov     dpl,r5
142D 8E83      4191            mov     dph,r6
142F C005      4192            push    ar5
1431 C006      4193            push    ar6
1433 120000    4194            lcall   __divuint
1436 AA82      4195            mov     r2,dpl
1438 AB83      4196            mov     r3,dph
143A 75000A    4197            mov     __moduint_PARM_2,#0x0A
143D E4        4198            clr     a
143E F501      4199            mov     (__moduint_PARM_2 + 1),a
1440 8A82      4200            mov     dpl,r2
1442 8B83      4201            mov     dph,r3
1444 120000    4202            lcall   __moduint
1447 AA82      4203            mov     r2,dpl
1449 D006      4204            pop     ar6
144B D005      4205            pop     ar5
144D 7430      4206            mov     a,#0x30
144F 2A        4207            add     a,r2
1450 90BEE3    4208            mov     dptr,#(_main_line2_1_176 + 0x000b)
1453 F0        4209            movx    @dptr,a
1454           4210   ;        C:\Vincent\source\tramsitterStopwatch.c:938: line2[12]='0'+((ury/100)%10);
1454 750064    4211            mov     __divuint_PARM_2,#0x64
1457 E4        4212            clr     a
1458 F501      4213            mov     (__divuint_PARM_2 + 1),a
145A 8D82      4214            mov     dpl,r5
145C 8E83      4215            mov     dph,r6
145E C005      4216            push    ar5
1460 C006      4217            push    ar6
1462 120000    4218            lcall   __divuint
1465 AA82      4219            mov     r2,dpl
1467 AB83      4220            mov     r3,dph
1469 75000A    4221            mov     __moduint_PARM_2,#0x0A
146C E4        4222            clr     a
146D F501      4223            mov     (__moduint_PARM_2 + 1),a
146F 8A82      4224            mov     dpl,r2
1471 8B83      4225            mov     dph,r3
1473 120000    4226            lcall   __moduint
1476 AA82      4227            mov     r2,dpl
1478 D006      4228            pop     ar6
147A D005      4229            pop     ar5
147C 7430      4230            mov     a,#0x30
147E 2A        4231            add     a,r2
147F 90BEE4    4232            mov     dptr,#(_main_line2_1_176 + 0x000c)
1482 F0        4233            movx    @dptr,a
1483           4234   ;        C:\Vincent\source\tramsitterStopwatch.c:939: line2[13]='0'+((ury/10)%10);
1483 75000A    4235            mov     __divuint_PARM_2,#0x0A
1486 E4        4236            clr     a
1487 F501      4237            mov     (__divuint_PARM_2 + 1),a
1489 8D82      4238            mov     dpl,r5
148B 8E83      4239            mov     dph,r6
148D C005      4240            push    ar5
148F C006      4241            push    ar6
1491 120000    4242            lcall   __divuint
1494 AA82      4243            mov     r2,dpl
1496 AB83      4244            mov     r3,dph
1498 75000A    4245            mov     __moduint_PARM_2,#0x0A
149B E4        4246            clr     a
149C F501      4247            mov     (__moduint_PARM_2 + 1),a
149E 8A82      4248            mov     dpl,r2
14A0 8B83      4249            mov     dph,r3
14A2 120000    4250            lcall   __moduint
14A5 AA82      4251            mov     r2,dpl
14A7 D006      4252            pop     ar6
14A9 D005      4253            pop     ar5
14AB 7430      4254            mov     a,#0x30
14AD 2A        4255            add     a,r2
14AE 90BEE5    4256            mov     dptr,#(_main_line2_1_176 + 0x000d)
14B1 F0        4257            movx    @dptr,a
14B2           4258   ;        C:\Vincent\source\tramsitterStopwatch.c:940: line2[14]='0'+(ury%10);
14B2 75000A    4259            mov     __moduint_PARM_2,#0x0A
14B5 E4        4260            clr     a
14B6 F501      4261            mov     (__moduint_PARM_2 + 1),a
14B8 8D82      4262            mov     dpl,r5
14BA 8E83      4263            mov     dph,r6
14BC 120000    4264            lcall   __moduint
14BF AA82      4265            mov     r2,dpl
14C1 7430      4266            mov     a,#0x30
14C3 2A        4267            add     a,r2
14C4 90BEE6    4268            mov     dptr,#(_main_line2_1_176 + 0x000e)
14C7 F0        4269            movx    @dptr,a
14C8           4270   ;        C:\Vincent\source\tramsitterStopwatch.c:941: line2[15]=' '; line2[16]=0;
14C8 90BEE7    4271            mov     dptr,#(_main_line2_1_176 + 0x000f)
14CB 7420      4272            mov     a,#0x20
14CD F0        4273            movx    @dptr,a
14CE 90BEE8    4274            mov     dptr,#(_main_line2_1_176 + 0x0010)
14D1 E4        4275            clr     a
14D2 F0        4276            movx    @dptr,a
14D3           4277   ;        C:\Vincent\source\tramsitterStopwatch.c:942: LCDprint("ADC OK-MOVE JOY ", 1, 0);
14D3 750801    4278            mov     _LCDprint_PARM_2,#0x01
14D6 C268      4279            clr     _LCDprint_PARM_3
14D8 900F70    4280            mov     dptr,#__str_30
14DB 75F080    4281            mov     b,#0x80
14DE 120000    4282            lcall   _LCDprint
14E1           4283   ;        C:\Vincent\source\tramsitterStopwatch.c:943: LCDprint(line2, 2, 0);
14E1 750802    4284            mov     _LCDprint_PARM_2,#0x02
14E4 C268      4285            clr     _LCDprint_PARM_3
14E6 90BED8    4286            mov     dptr,#_main_line2_1_176
14E9 75F000    4287            mov     b,#0x00
14EC 120000    4288            lcall   _LCDprint
14EF           4289   ;        C:\Vincent\source\tramsitterStopwatch.c:944: waitms(100);
14EF 900064    4290            mov     dptr,#0x0064
14F2 120000    4291            lcall   _waitms
14F5           4292   ;        C:\Vincent\source\tramsitterStopwatch.c:925: for (i=0; i<30; i++) {
14F5 05C8      4293            inc     _main_i_1_176
14F7 020000    4294            ljmp    L032093?
14FA           4295   L032096?:
14FA           4296   ;        C:\Vincent\source\tramsitterStopwatch.c:947: last_joystick = Read_Joystick();
14FA 120000    4297            lcall   _Read_Joystick
14FD           4298   ;        C:\Vincent\source\tramsitterStopwatch.c:948: LCDprint(">STOP          < ", 1, 0);
14FD 750801    4299            mov     _LCDprint_PARM_2,#0x01
1500 C268      4300            clr     _LCDprint_PARM_3
1502 900FB0    4301            mov     dptr,#__str_31
1505 75F080    4302            mov     b,#0x80
1508 120000    4303            lcall   _LCDprint
150B           4304   ;        C:\Vincent\source\tramsitterStopwatch.c:949: Update_Status_Line();
150B 120000    4305            lcall   _Update_Status_Line
150E           4306   ;        C:\Vincent\source\tramsitterStopwatch.c:950: waitms(300);
150E 90012C    4307            mov     dptr,#0x012C
1511 120000    4308            lcall   _waitms
1514           4309   ;        C:\Vincent\source\tramsitterStopwatch.c:955: while (1)
1514           4310   L032091?:
1514           4311   ;        C:\Vincent\source\tramsitterStopwatch.c:960: if (auto_mode && timer_tick) {
1514 30A830    4312            jnb     _auto_mode,L032002?
1517           4313   ;        C:\Vincent\source\tramsitterStopwatch.c:961: timer_tick = 0;
1517 10E870    4314            jbc     _timer_tick,L032171?
151A 8000      4315            sjmp    L032002?
151C           4316   L032171?:
151C           4317   ;        C:\Vincent\source\tramsitterStopwatch.c:962: stopwatch_seconds++;
151C 0578      4318            inc     _stopwatch_seconds
151E E4        4319            clr     a
151F B578B0    4320            cjne    a,_stopwatch_seconds,L032172?
1522 0579      4321            inc     (_stopwatch_seconds + 1)
1524           4322   L032172?:
1524           4323   ;        C:\Vincent\source\tramsitterStopwatch.c:963: Update_Stopwatch_Display();
1524 120000    4324            lcall   _Update_Stopwatch_Display
1527           4325   L032002?:
1527           4326   ;        C:\Vincent\source\tramsitterStopwatch.c:969: if (is_locked)
1527 3078F0    4327            jnb     _is_locked,L032008?
152A           4328   ;        C:\Vincent\source\tramsitterStopwatch.c:971: entered_pass = Password_Entry_Screen("LOCKED          ");
152A 901130    4329            mov     dptr,#__str_32
152D 75F080    4330            mov     b,#0x80
1530 120000    4331            lcall   _Password_Entry_Screen
1533           4332   ;        C:\Vincent\source\tramsitterStopwatch.c:974: if (entered_pass == saved_password)
1533 E582      4333            mov     a,dpl
1535 FA        4334            mov     r2,a
1536 B5F870    4335            cjne    a,_saved_password,L032005?
1539           4336   ;        C:\Vincent\source\tramsitterStopwatch.c:977: is_locked = 0;
1539 C278      4337            clr     _is_locked
153B           4338   ;        C:\Vincent\source\tramsitterStopwatch.c:978: LCDprint("Unlocked        ", 1, 1);
153B 750801    4339            mov     _LCDprint_PARM_2,#0x01
153E D268      4340            setb    _LCDprint_PARM_3
1540 9011B0    4341            mov     dptr,#__str_33
1543 75F080    4342            mov     b,#0x80
1546 120000    4343            lcall   _LCDprint
1549           4344   ;        C:\Vincent\source\tramsitterStopwatch.c:979: LCDprint("Returning...    ", 2, 1);
1549 750802    4345            mov     _LCDprint_PARM_2,#0x02
154C D268      4346            setb    _LCDprint_PARM_3
154E 9011F0    4347            mov     dptr,#__str_34
1551 75F080    4348            mov     b,#0x80
1554 120000    4349            lcall   _LCDprint
1557           4350   ;        C:\Vincent\source\tramsitterStopwatch.c:980: waitms(1000);
1557 9003E8    4351            mov     dptr,#0x03E8
155A 120000    4352            lcall   _waitms
155D           4353   ;        C:\Vincent\source\tramsitterStopwatch.c:981: LCDprint("STOP            ", 1, 0);
155D 750801    4354            mov     _LCDprint_PARM_2,#0x01
1560 C268      4355            clr     _LCDprint_PARM_3
1562 901230    4356            mov     dptr,#__str_35
1565 75F080    4357            mov     b,#0x80
1568 120000    4358            lcall   _LCDprint
156B           4359   ;        C:\Vincent\source\tramsitterStopwatch.c:982: Update_Status_Line();
156B 120000    4360            lcall   _Update_Status_Line
156E 8000      4361            sjmp    L032091?
1570           4362   L032005?:
1570           4363   ;        C:\Vincent\source\tramsitterStopwatch.c:987: LCDprint("Wrong Password  ", 1, 1);
1570 750801    4364            mov     _LCDprint_PARM_2,#0x01
1573 D268      4365            setb    _LCDprint_PARM_3
1575 901270    4366            mov     dptr,#__str_36
1578 75F080    4367            mov     b,#0x80
157B 120000    4368            lcall   _LCDprint
157E           4369   ;        C:\Vincent\source\tramsitterStopwatch.c:988: LCDprint("Try Again       ", 2, 1);
157E 750802    4370            mov     _LCDprint_PARM_2,#0x02
1581 D268      4371            setb    _LCDprint_PARM_3
1583 9012B0    4372            mov     dptr,#__str_37
1586 75F080    4373            mov     b,#0x80
1589 120000    4374            lcall   _LCDprint
158C           4375   ;        C:\Vincent\source\tramsitterStopwatch.c:989: waitms(1000);
158C 9003E8    4376            mov     dptr,#0x03E8
158F 120000    4377            lcall   _waitms
1592           4378   ;        C:\Vincent\source\tramsitterStopwatch.c:992: continue;  // Skip rest of main loop
1592 020000    4379            ljmp    L032091?
1595           4380   L032008?:
1595           4381   ;        C:\Vincent\source\tramsitterStopwatch.c:1000: if (auto_mode == 1)
1595 30A8F0    4382            jnb     _auto_mode,L032028?
1598           4383   ;        C:\Vincent\source\tramsitterStopwatch.c:1003: if (BTN3 == 0)
1598 30A630    4384            jnb     _P2_6,L032177?
159B 020000    4385            ljmp    L032029?
159E           4386   L032177?:
159E           4387   ;        C:\Vincent\source\tramsitterStopwatch.c:1005: IR_LoopbackPacket(CMD_PAUSE);
159E 758240    4388            mov     dpl,#0x40
15A1 120000    4389            lcall   _IR_LoopbackPacket
15A4           4390   ;        C:\Vincent\source\tramsitterStopwatch.c:1006: Show_Command(CMD_PAUSE);
15A4 758240    4391            mov     dpl,#0x40
15A7 120000    4392            lcall   _Show_Command
15AA           4393   ;        C:\Vincent\source\tramsitterStopwatch.c:1008: while (BTN3 == 0) {
15AA           4394   L032009?:
15AA 20A6F0    4395            jb      _P2_6,L032011?
15AD           4396   ;        C:\Vincent\source\tramsitterStopwatch.c:1009: waitms(20); 
15AD 900014    4397            mov     dptr,#0x0014
15B0 120000    4398            lcall   _waitms
15B3 8000      4399            sjmp    L032009?
15B5           4400   L032011?:
15B5           4401   ;        C:\Vincent\source\tramsitterStopwatch.c:1012: IR_LoopbackPacket(CMD_RESUME);
15B5 758241    4402            mov     dpl,#0x41
15B8 120000    4403            lcall   _IR_LoopbackPacket
15BB           4404   ;        C:\Vincent\source\tramsitterStopwatch.c:1013: Show_Command(CMD_RESUME);
15BB 758241    4405            mov     dpl,#0x41
15BE 120000    4406            lcall   _Show_Command
15C1           4407   ;        C:\Vincent\source\tramsitterStopwatch.c:1014: waitms(200);
15C1 9000C8    4408            mov     dptr,#0x00C8
15C4 120000    4409            lcall   _waitms
15C7           4410   ;        C:\Vincent\source\tramsitterStopwatch.c:1015: Update_Status_Line();
15C7 120000    4411            lcall   _Update_Status_Line
15CA 8000      4412            sjmp    L032029?
15CC           4413   L032028?:
15CC           4414   ;        C:\Vincent\source\tramsitterStopwatch.c:1021: if (BTN3 == 0)
15CC 20A670    4415            jb      _P2_6,L032029?
15CF           4416   ;        C:\Vincent\source\tramsitterStopwatch.c:1023: waitms(20);  // Debounce
15CF 900014    4417            mov     dptr,#0x0014
15D2 120000    4418            lcall   _waitms
15D5           4419   ;        C:\Vincent\source\tramsitterStopwatch.c:1024: if (BTN3 == 0)
15D5 20A670    4420            jb      _P2_6,L032029?
15D8           4421   ;        C:\Vincent\source\tramsitterStopwatch.c:1027: while (BTN3 == 0 && btn3_held < 1200)
15D8 7A00      4422            mov     r2,#0x00
15DA 7B00      4423            mov     r3,#0x00
15DC           4424   L032015?:
15DC 20A670    4425            jb      _P2_6,L032017?
15DF C3        4426            clr     c
15E0 EA        4427            mov     a,r2
15E1 94B0      4428            subb    a,#0xB0
15E3 EB        4429            mov     a,r3
15E4 9404      4430            subb    a,#0x04
15E6 5000      4431            jnc     L032017?
15E8           4432   ;        C:\Vincent\source\tramsitterStopwatch.c:1029: waitms(10);
15E8 90000A    4433            mov     dptr,#0x000A
15EB C002      4434            push    ar2
15ED C003      4435            push    ar3
15EF 120000    4436            lcall   _waitms
15F2 D003      4437            pop     ar3
15F4 D002      4438            pop     ar2
15F6           4439   ;        C:\Vincent\source\tramsitterStopwatch.c:1030: btn3_held += 10;
15F6 740A      4440            mov     a,#0x0A
15F8 2A        4441            add     a,r2
15F9 FA        4442            mov     r2,a
15FA E4        4443            clr     a
15FB 3B        4444            addc    a,r3
15FC FB        4445            mov     r3,a
15FD 8000      4446            sjmp    L032015?
15FF           4447   L032017?:
15FF           4448   ;        C:\Vincent\source\tramsitterStopwatch.c:1033: if (btn3_held >= BTN3_LONG_MS)
15FF C3        4449            clr     c
1600 EA        4450            mov     a,r2
1601 94E8      4451            subb    a,#0xE8
1603 EB        4452            mov     a,r3
1604 9403      4453            subb    a,#0x03
1606 4000      4454            jc      L032020?
1608           4455   ;        C:\Vincent\source\tramsitterStopwatch.c:1036: is_locked = 1;
1608 D278      4456            setb    _is_locked
160A           4457   ;        C:\Vincent\source\tramsitterStopwatch.c:1037: LCDprint("Locking...      ", 1, 1);
160A 750801    4458            mov     _LCDprint_PARM_2,#0x01
160D D268      4459            setb    _LCDprint_PARM_3
160F 9014F0    4460            mov     dptr,#__str_38
1612 75F080    4461            mov     b,#0x80
1615 120000    4462            lcall   _LCDprint
1618           4463   ;        C:\Vincent\source\tramsitterStopwatch.c:1038: waitms(500);
1618 9001F4    4464            mov     dptr,#0x01F4
161B 120000    4465            lcall   _waitms
161E           4466   ;        C:\Vincent\source\tramsitterStopwatch.c:1040: continue;
161E 020000    4467            ljmp    L032091?
1621           4468   ;        C:\Vincent\source\tramsitterStopwatch.c:1043: while (BTN3 == 0);  // Wait for release
1621           4469   L032020?:
1621 30A6B0    4470            jnb     _P2_6,L032020?
1624           4471   L032029?:
1624           4472   ;        C:\Vincent\source\tramsitterStopwatch.c:1051: if (BTN1 == 0)
1624 30A530    4473            jnb     _P2_5,L032185?
1627 020000    4474            ljmp    L032088?
162A           4475   L032185?:
162A           4476   ;        C:\Vincent\source\tramsitterStopwatch.c:1053: waitms(20);  // Debounce
162A 900014    4477            mov     dptr,#0x0014
162D 120000    4478            lcall   _waitms
1630           4479   ;        C:\Vincent\source\tramsitterStopwatch.c:1054: if (BTN1 == 0)
1630 30A5B0    4480            jnb     _P2_5,L032186?
1633 020000    4481            ljmp    L032089?
1636           4482   L032186?:
1636           4483   ;        C:\Vincent\source\tramsitterStopwatch.c:1057: if (auto_mode == 0)
1636 20A830    4484            jb      _auto_mode,L032047?
1639           4485   ;        C:\Vincent\source\tramsitterStopwatch.c:1060: while (BTN1 == 0 && btn1_held < 1000)
1639 7A00      4486            mov     r2,#0x00
163B 7B00      4487            mov     r3,#0x00
163D           4488   L032031?:
163D 20A5B0    4489            jb      _P2_5,L032033?
1640 C3        4490            clr     c
1641 EA        4491            mov     a,r2
1642 94E8      4492            subb    a,#0xE8
1644 EB        4493            mov     a,r3
1645 9403      4494            subb    a,#0x03
1647 5000      4495            jnc     L032033?
1649           4496   ;        C:\Vincent\source\tramsitterStopwatch.c:1062: waitms(10);
1649 90000A    4497            mov     dptr,#0x000A
164C C002      4498            push    ar2
164E C003      4499            push    ar3
1650 120000    4500            lcall   _waitms
1653 D003      4501            pop     ar3
1655 D002      4502            pop     ar2
1657           4503   ;        C:\Vincent\source\tramsitterStopwatch.c:1063: btn1_held += 10;
1657 740A      4504            mov     a,#0x0A
1659 2A        4505            add     a,r2
165A FA        4506            mov     r2,a
165B E4        4507            clr     a
165C 3B        4508            addc    a,r3
165D FB        4509            mov     r3,a
165E 8000      4510            sjmp    L032031?
1660           4511   L032033?:
1660           4512   ;        C:\Vincent\source\tramsitterStopwatch.c:1066: if (btn1_held >= BTN1_LONG_MS)
1660 C3        4513            clr     c
1661 EA        4514            mov     a,r2
1662 9420      4515            subb    a,#0x20
1664 EB        4516            mov     a,r3
1665 9403      4517            subb    a,#0x03
1667 4000      4518            jc      L032041?
1669           4519   ;        C:\Vincent\source\tramsitterStopwatch.c:1069: while (BTN1 == 0);  // Wait for release
1669           4520   L032034?:
1669 30A530    4521            jnb     _P2_5,L032034?
166C           4522   ;        C:\Vincent\source\tramsitterStopwatch.c:1070: Program_Mode();
166C 120000    4523            lcall   _Program_Mode
166F           4524   ;        C:\Vincent\source\tramsitterStopwatch.c:1073: LCDprint("STOP            ", 1, 0);
166F 750801    4525            mov     _LCDprint_PARM_2,#0x01
1672 C268      4526            clr     _LCDprint_PARM_3
1674 901230    4527            mov     dptr,#__str_35
1677 75F080    4528            mov     b,#0x80
167A 120000    4529            lcall   _LCDprint
167D           4530   ;        C:\Vincent\source\tramsitterStopwatch.c:1074: Update_Status_Line();
167D 120000    4531            lcall   _Update_Status_Line
1680           4532   ;        C:\Vincent\source\tramsitterStopwatch.c:1075: waitms(100);
1680 900064    4533            mov     dptr,#0x0064
1683 120000    4534            lcall   _waitms
1686 020000    4535            ljmp    L032089?
1689           4536   L032041?:
1689           4537   ;        C:\Vincent\source\tramsitterStopwatch.c:1080: rx = IR_LoopbackPacket(CMD_HORN);
1689 758220    4538            mov     dpl,#0x20
168C 120000    4539            lcall   _IR_LoopbackPacket
168F           4540   ;        C:\Vincent\source\tramsitterStopwatch.c:1081: Show_Command(CMD_HORN);
168F 758220    4541            mov     dpl,#0x20
1692 120000    4542            lcall   _Show_Command
1695           4543   ;        C:\Vincent\source\tramsitterStopwatch.c:1082: while (BTN1 == 0);  // Wait for release
1695           4544   L032037?:
1695 30A570    4545            jnb     _P2_5,L032037?
1698           4546   ;        C:\Vincent\source\tramsitterStopwatch.c:1083: waitms(200);
1698 9000C8    4547            mov     dptr,#0x00C8
169B 120000    4548            lcall   _waitms
169E 020000    4549            ljmp    L032089?
16A1           4550   L032047?:
16A1           4551   ;        C:\Vincent\source\tramsitterStopwatch.c:1089: rx = IR_LoopbackPacket(CMD_HORN);
16A1 758220    4552            mov     dpl,#0x20
16A4 120000    4553            lcall   _IR_LoopbackPacket
16A7           4554   ;        C:\Vincent\source\tramsitterStopwatch.c:1090: Show_Command(CMD_HORN);
16A7 758220    4555            mov     dpl,#0x20
16AA 120000    4556            lcall   _Show_Command
16AD           4557   ;        C:\Vincent\source\tramsitterStopwatch.c:1091: while (BTN1 == 0);  // Wait for release
16AD           4558   L032043?:
16AD 30A5B0    4559            jnb     _P2_5,L032043?
16B0           4560   ;        C:\Vincent\source\tramsitterStopwatch.c:1092: waitms(200);
16B0 9000C8    4561            mov     dptr,#0x00C8
16B3 120000    4562            lcall   _waitms
16B6 020000    4563            ljmp    L032089?
16B9           4564   L032088?:
16B9           4565   ;        C:\Vincent\source\tramsitterStopwatch.c:1101: else if (BTN2 == 0)
16B9 30A4F0    4566            jnb     _P2_4,L032194?
16BC 020000    4567            ljmp    L032085?
16BF           4568   L032194?:
16BF           4569   ;        C:\Vincent\source\tramsitterStopwatch.c:1103: waitms(20);
16BF 900014    4570            mov     dptr,#0x0014
16C2 120000    4571            lcall   _waitms
16C5           4572   ;        C:\Vincent\source\tramsitterStopwatch.c:1104: if (BTN2 == 0)
16C5 30A470    4573            jnb     _P2_4,L032195?
16C8 020000    4574            ljmp    L032089?
16CB           4575   L032195?:
16CB           4576   ;        C:\Vincent\source\tramsitterStopwatch.c:1107: while (BTN2 == 0 && btn2_held < 600) {
16CB 7A00      4577            mov     r2,#0x00
16CD 7B00      4578            mov     r3,#0x00
16CF           4579   L032052?:
16CF 20A4F0    4580            jb      _P2_4,L032054?
16D2 C3        4581            clr     c
16D3 EA        4582            mov     a,r2
16D4 9458      4583            subb    a,#0x58
16D6 EB        4584            mov     a,r3
16D7 9402      4585            subb    a,#0x02
16D9 5000      4586            jnc     L032054?
16DB           4587   ;        C:\Vincent\source\tramsitterStopwatch.c:1108: waitms(10);
16DB 90000A    4588            mov     dptr,#0x000A
16DE C002      4589            push    ar2
16E0 C003      4590            push    ar3
16E2 120000    4591            lcall   _waitms
16E5 D003      4592            pop     ar3
16E7 D002      4593            pop     ar2
16E9           4594   ;        C:\Vincent\source\tramsitterStopwatch.c:1109: btn2_held += 10;
16E9 740A      4595            mov     a,#0x0A
16EB 2A        4596            add     a,r2
16EC FA        4597            mov     r2,a
16ED E4        4598            clr     a
16EE 3B        4599            addc    a,r3
16EF FB        4600            mov     r3,a
16F0 8000      4601            sjmp    L032052?
16F2           4602   L032054?:
16F2           4603   ;        C:\Vincent\source\tramsitterStopwatch.c:1112: if (btn2_held >= BTN2_LONG_MS)
16F2 C3        4604            clr     c
16F3 EA        4605            mov     a,r2
16F4 94F4      4606            subb    a,#0xF4
16F6 EB        4607            mov     a,r3
16F7 9401      4608            subb    a,#0x01
16F9 4000      4609            jc      L032066?
16FB           4610   ;        C:\Vincent\source\tramsitterStopwatch.c:1115: auto_mode = !auto_mode;
16FB B2A8      4611            cpl     _auto_mode
16FD           4612   ;        C:\Vincent\source\tramsitterStopwatch.c:1116: cmd = auto_mode ? CMD_AUTO_START : CMD_AUTO_STOP;
16FD 30A870    4613            jnb     _auto_mode,L032103?
1700 7A30      4614            mov     r2,#0x30
1702 8000      4615            sjmp    L032104?
1704           4616   L032103?:
1704 7A31      4617            mov     r2,#0x31
1706           4618   L032104?:
1706           4619   ;        C:\Vincent\source\tramsitterStopwatch.c:1117: rx = IR_LoopbackPacket(cmd);
1706 8A82      4620            mov     dpl,r2
1708 C002      4621            push    ar2
170A 120000    4622            lcall   _IR_LoopbackPacket
170D D002      4623            pop     ar2
170F           4624   ;        C:\Vincent\source\tramsitterStopwatch.c:1118: Show_Command(cmd);
170F 8A82      4625            mov     dpl,r2
1711 120000    4626            lcall   _Show_Command
1714           4627   ;        C:\Vincent\source\tramsitterStopwatch.c:1120: if (auto_mode) {
1714 30A8F0    4628            jnb     _auto_mode,L032067?
1717           4629   ;        C:\Vincent\source\tramsitterStopwatch.c:1122: stopwatch_seconds = 0;
1717 E4        4630            clr     a
1718 F578      4631            mov     _stopwatch_seconds,a
171A F579      4632            mov     (_stopwatch_seconds + 1),a
171C           4633   ;        C:\Vincent\source\tramsitterStopwatch.c:1123: stopwatch_paused = 0;
171C C238      4634            clr     _stopwatch_paused
171E           4635   ;        C:\Vincent\source\tramsitterStopwatch.c:1124: Update_Stopwatch_Display();
171E 120000    4636            lcall   _Update_Stopwatch_Display
1721           4637   ;        C:\Vincent\source\tramsitterStopwatch.c:1125: waitms(100);
1721 900064    4638            mov     dptr,#0x0064
1724 120000    4639            lcall   _waitms
1727 8000      4640            sjmp    L032067?
1729           4641   L032066?:
1729           4642   ;        C:\Vincent\source\tramsitterStopwatch.c:1131: if (auto_mode == 1) {
1729 30A830    4643            jnb     _auto_mode,L032063?
172C           4644   ;        C:\Vincent\source\tramsitterStopwatch.c:1133: stopwatch_paused = !stopwatch_paused;
172C B238      4645            cpl     _stopwatch_paused
172E           4646   ;        C:\Vincent\source\tramsitterStopwatch.c:1134: if (stopwatch_paused) {
172E 303870    4647            jnb     _stopwatch_paused,L032058?
1731           4648   ;        C:\Vincent\source\tramsitterStopwatch.c:1135: LCDprint("Time: PAUSED    ", 1, 1);
1731 750801    4649            mov     _LCDprint_PARM_2,#0x01
1734 D268      4650            setb    _LCDprint_PARM_3
1736 901AB0    4651            mov     dptr,#__str_39
1739 75F080    4652            mov     b,#0x80
173C 120000    4653            lcall   _LCDprint
173F 8000      4654            sjmp    L032059?
1741           4655   L032058?:
1741           4656   ;        C:\Vincent\source\tramsitterStopwatch.c:1137: Update_Stopwatch_Display();
1741 120000    4657            lcall   _Update_Stopwatch_Display
1744           4658   L032059?:
1744           4659   ;        C:\Vincent\source\tramsitterStopwatch.c:1139: waitms(200);
1744 9000C8    4660            mov     dptr,#0x00C8
1747 120000    4661            lcall   _waitms
174A 8000      4662            sjmp    L032067?
174C           4663   L032063?:
174C           4664   ;        C:\Vincent\source\tramsitterStopwatch.c:1143: current_path++;
174C 0548      4665            inc     _current_path
174E           4666   ;        C:\Vincent\source\tramsitterStopwatch.c:1144: if (current_path > 4) current_path = 1;  // NOW cycles 1-4
174E E548      4667            mov     a,_current_path
1750 24FB      4668            add     a,#0xff - 0x04
1752 5000      4669            jnc     L032061?
1754 754801    4670            mov     _current_path,#0x01
1757           4671   L032061?:
1757           4672   ;        C:\Vincent\source\tramsitterStopwatch.c:1146: cmd = (current_path == 1) ? CMD_PATH_1 :
1757 7401      4673            mov     a,#0x01
1759 B54870    4674            cjne    a,_current_path,L032105?
175C 7B10      4675            mov     r3,#0x10
175E 8000      4676            sjmp    L032106?
1760           4677   L032105?:
1760           4678   ;        C:\Vincent\source\tramsitterStopwatch.c:1147: (current_path == 2) ? CMD_PATH_2 :
1760 7402      4679            mov     a,#0x02
1762 B548F0    4680            cjne    a,_current_path,L032107?
1765 7C11      4681            mov     r4,#0x11
1767 8000      4682            sjmp    L032108?
1769           4683   L032107?:
1769           4684   ;        C:\Vincent\source\tramsitterStopwatch.c:1148: (current_path == 3) ? CMD_PATH_3 : CMD_PATH_4;
1769 7403      4685            mov     a,#0x03
176B B54870    4686            cjne    a,_current_path,L032109?
176E 7D12      4687            mov     r5,#0x12
1770 8000      4688            sjmp    L032110?
1772           4689   L032109?:
1772 7D13      4690            mov     r5,#0x13
1774           4691   L032110?:
1774 8D04      4692            mov     ar4,r5
1776           4693   L032108?:
1776 8C03      4694            mov     ar3,r4
1778           4695   L032106?:
1778 8B02      4696            mov     ar2,r3
177A           4697   ;        C:\Vincent\source\tramsitterStopwatch.c:1150: rx = IR_LoopbackPacket(cmd);
177A 8A82      4698            mov     dpl,r2
177C C002      4699            push    ar2
177E 120000    4700            lcall   _IR_LoopbackPacket
1781 D002      4701            pop     ar2
1783           4702   ;        C:\Vincent\source\tramsitterStopwatch.c:1151: Show_Command(cmd);
1783 8A82      4703            mov     dpl,r2
1785 120000    4704            lcall   _Show_Command
1788           4705   L032067?:
1788           4706   ;        C:\Vincent\source\tramsitterStopwatch.c:1155: Update_Status_Line();
1788 120000    4707            lcall   _Update_Status_Line
178B           4708   ;        C:\Vincent\source\tramsitterStopwatch.c:1156: while (BTN2 == 0);
178B           4709   L032068?:
178B 30A4F0    4710            jnb     _P2_4,L032068?
178E 8000      4711            sjmp    L032089?
1790           4712   L032085?:
1790           4713   ;        C:\Vincent\source\tramsitterStopwatch.c:1163: else if (JOY_SW == 0)
1790 20A330    4714            jb      _P2_3,L032082?
1793           4715   ;        C:\Vincent\source\tramsitterStopwatch.c:1165: waitms(20);
1793 900014    4716            mov     dptr,#0x0014
1796 120000    4717            lcall   _waitms
1799           4718   ;        C:\Vincent\source\tramsitterStopwatch.c:1166: if (JOY_SW == 0)
1799 20A3F0    4719            jb      _P2_3,L032089?
179C           4720   ;        C:\Vincent\source\tramsitterStopwatch.c:1168: rx = IR_LoopbackPacket(CMD_ROTATE_180);
179C 758206    4721            mov     dpl,#0x06
179F 120000    4722            lcall   _IR_LoopbackPacket
17A2           4723   ;        C:\Vincent\source\tramsitterStopwatch.c:1169: Show_Command(CMD_ROTATE_180);
17A2 758206    4724            mov     dpl,#0x06
17A5 120000    4725            lcall   _Show_Command
17A8           4726   ;        C:\Vincent\source\tramsitterStopwatch.c:1170: waitms(200);
17A8 9000C8    4727            mov     dptr,#0x00C8
17AB 120000    4728            lcall   _waitms
17AE           4729   ;        C:\Vincent\source\tramsitterStopwatch.c:1171: while (JOY_SW == 0);
17AE           4730   L032073?:
17AE 30A370    4731            jnb     _P2_3,L032073?
17B1 8000      4732            sjmp    L032089?
17B3           4733   L032082?:
17B3           4734   ;        C:\Vincent\source\tramsitterStopwatch.c:1180: if (auto_mode) {
17B3 20A8F0    4735            jb      _auto_mode,L032089?
17B6           4736   ;        C:\Vincent\source\tramsitterStopwatch.c:1185: Send_Joystick_Proportional();
17B6 120000    4737            lcall   _Send_Joystick_Proportional
17B9           4738   L032089?:
17B9           4739   ;        C:\Vincent\source\tramsitterStopwatch.c:1191: battery_percent = Get_Battery_Percent();
17B9 120000    4740            lcall   _Get_Battery_Percent
17BC AA82      4741            mov     r2,dpl
17BE           4742   ;        C:\Vincent\source\tramsitterStopwatch.c:1192: battery_percent_carr[0] = '0' + (battery_percent / 100) % 10;
17BE 75F064    4743            mov     b,#0x64
17C1 EA        4744            mov     a,r2
17C2 84        4745            div     ab
17C3 75F00A    4746            mov     b,#0x0A
17C6 84        4747            div     ab
17C7 E5F0      4748            mov     a,b
17C9 2430      4749            add     a,#0x30
17CB F528      4750            mov     _main_battery_percent_carr_1_176,a
17CD           4751   ;        C:\Vincent\source\tramsitterStopwatch.c:1193: battery_percent_carr[1] = '0' + (battery_percent / 10) % 10;
17CD 75F00A    4752            mov     b,#0x0A
17D0 EA        4753            mov     a,r2
17D1 84        4754            div     ab
17D2 75F00A    4755            mov     b,#0x0A
17D5 84        4756            div     ab
17D6 E5F0      4757            mov     a,b
17D8 2430      4758            add     a,#0x30
17DA F529      4759            mov     (_main_battery_percent_carr_1_176 + 0x0001),a
17DC           4760   ;        C:\Vincent\source\tramsitterStopwatch.c:1194: battery_percent_carr[2] = '0' + battery_percent % 10;
17DC 75F00A    4761            mov     b,#0x0A
17DF EA        4762            mov     a,r2
17E0 84        4763            div     ab
17E1 E5F0      4764            mov     a,b
17E3 2430      4765            add     a,#0x30
17E5 F52A      4766            mov     (_main_battery_percent_carr_1_176 + 0x0002),a
17E7           4767   ;        C:\Vincent\source\tramsitterStopwatch.c:1195: for (carr_idx = 0; carr_idx < sizeof(battery_percent_carr) / sizeof(char); carr_idx++)
17E7 7A00      4768            mov     r2,#0x00
17E9 7B00      4769            mov     r3,#0x00
17EB           4770   L032097?:
17EB C3        4771            clr     c
17EC EA        4772            mov     a,r2
17ED 9403      4773            subb    a,#0x03
17EF EB        4774            mov     a,r3
17F0 6480      4775            xrl     a,#0x80
17F2 9480      4776            subb    a,#0x80
17F4 5000      4777            jnc     L032100?
17F6           4778   ;        C:\Vincent\source\tramsitterStopwatch.c:1197: putchar(battery_percent_carr[carr_idx]);
17F6 EA        4779            mov     a,r2
17F7 2428      4780            add     a,#_main_battery_percent_carr_1_176
17F9 F8        4781            mov     r0,a
17FA 8682      4782            mov     dpl,@r0
17FC C002      4783            push    ar2
17FE C003      4784            push    ar3
1800 120000    4785            lcall   _putchar
1803 D003      4786            pop     ar3
1805 D002      4787            pop     ar2
1807           4788   ;        C:\Vincent\source\tramsitterStopwatch.c:1195: for (carr_idx = 0; carr_idx < sizeof(battery_percent_carr) / sizeof(char); carr_idx++)
1807 0A        4789            inc     r2
1808 BA00B0    4790            cjne    r2,#0x00,L032097?
180B 0B        4791            inc     r3
180C 8000      4792            sjmp    L032097?
180E           4793   L032100?:
180E           4794   ;        C:\Vincent\source\tramsitterStopwatch.c:1200: putchar(' ');
180E 758220    4795            mov     dpl,#0x20
1811 120000    4796            lcall   _putchar
1814           4797   ;        C:\Vincent\source\tramsitterStopwatch.c:1201: putchar(auto_mode + '0');
1814 A2A8      4798            mov     c,_auto_mode
1816 E4        4799            clr     a
1817 33        4800            rlc     a
1818 2430      4801            add     a,#0x30
181A F582      4802            mov     dpl,a
181C 120000    4803            lcall   _putchar
181F           4804   ;        C:\Vincent\source\tramsitterStopwatch.c:1203: putchar(' ');
181F 758220    4805            mov     dpl,#0x20
1822 120000    4806            lcall   _putchar
1825           4807   ;        C:\Vincent\source\tramsitterStopwatch.c:1204: putchar(current_path + '0');
1825 7430      4808            mov     a,#0x30
1827 2548      4809            add     a,_current_path
1829 F582      4810            mov     dpl,a
182B 120000    4811            lcall   _putchar
182E           4812   ;        C:\Vincent\source\tramsitterStopwatch.c:1206: putchar('\n');
182E 75820A    4813            mov     dpl,#0x0A
1831 120000    4814            lcall   _putchar
1834           4815   ;        C:\Vincent\source\tramsitterStopwatch.c:1208: waitms(80);
1834 900050    4816            mov     dptr,#0x0050
1837 120000    4817            lcall   _waitms
183A 020000    4818            ljmp    L032091?
183D           4819            rseg R_CSEG
183D           4820   
0000           4821            rseg R_XINIT
0000           4822   
0000           4823            rseg R_CONST
0000           4824   __str_0:
0000 4155544F  4825            db 'AUTO   || '
     2020207C
     7C20
000A 00        4826            db 0x00
000B           4827   __str_1:
000B 4D414E55  4828            db 'MANUAL || '
     414C207C
     7C20
0015 00        4829            db 0x00
0016           4830   __str_2:
0016 53544F50  4831            db 'STOP    '
     20202020
001E 00        4832            db 0x00
001F           4833   __str_3:
001F 464F5257  4834            db 'FORWARD  '
     41524420
     20
0028 00        4835            db 0x00
0029           4836   __str_4:
0029 4241434B  4837            db 'BACKWARD '
     57415244
     20
0032 00        4838            db 0x00
0033           4839   __str_5:
0033 4C454654  4840            db 'LEFT     '
     20202020
     20
003C 00        4841            db 0x00
003D           4842   __str_6:
003D 52494748  4843            db 'RIGHT    '
     54202020
     20
0046 00        4844            db 0x00
0047           4845   __str_7:
0047 524F5420  4846            db 'ROT 180  '
     31383020
     20
0050 00        4847            db 0x00
0051           4848   __str_8:
0051 50415448  4849            db 'PATH  1  '
     20203120
     20
005A 00        4850            db 0x00
005B           4851   __str_9:
005B 50415448  4852            db 'PATH  2  '
     20203220
     20
0064 00        4853            db 0x00
0065           4854   __str_10:
0065 50415448  4855            db 'PATH  3  '
     20203320
     20
006E 00        4856            db 0x00
006F           4857   __str_11:
006F 50415448  4858            db 'PATH  4  '
     20203420
     20
0078 00        4859            db 0x00
0079           4860   __str_12:
0079 4155544F  4861            db 'AUTO  ON '
     20204F4E
     20
0082 00        4862            db 0x00
0083           4863   __str_13:
0083 4155544F  4864            db 'AUTO OFF '
     204F4646
     20
008C 00        4865            db 0x00
008D           4866   __str_14:
008D 50415553  4867            db 'PAUSED   '
     45442020
     20
0096 00        4868            db 0x00
0097           4869   __str_15:
0097 52455355  4870            db 'RESUMING '
     4D494E47
     20
00A0 00        4871            db 0x00
00A1           4872   __str_16:
00A1 484F524E  4873            db 'HORN!!   '
     21212020
     20
00AA 00        4874            db 0x00
00AB           4875   __str_17:
00AB 3F3F3F20  4876            db '???      '
     20202020
     20
00B4 00        4877            db 0x00
00B5           4878   __str_18:
00B5 464F5257  4879            db 'FORWARD '
     41524420
00BD 00        4880            db 0x00
00BE           4881   __str_19:
00BE 4C454654  4882            db 'LEFT    '
     20202020
00C6 00        4883            db 0x00
00C7           4884   __str_20:
00C7 52494748  4885            db 'RIGHT   '
     54202020
00CF 00        4886            db 0x00
00D0           4887   __str_21:
00D0 3F3F3F20  4888            db '???     '
     20202020
00D8 00        4889            db 0x00
00D9           4890   __str_22:
00D9 50726F67  4891            db 'Program Mode:   '
     72616D20
     4D6F6465
     3A202020
00E9 00        4892            db 0x00
00EA           4893   __str_23:
00EA 53544D33  4894            db 'STM32 Ready!    '
     32205265
     61647921
     20202020
00FA 00        4895            db 0x00
00FB           4896   __str_24:
00FB 4C6F6164  4897            db 'Loading...      '
     696E672E
     2E2E2020
     20202020
010B 00        4898            db 0x00
010C           4899   __str_25:
010C 50617468  4900            db 'Path 4 Saved!   '
     20342053
     61766564
     21202020
011C 00        4901            db 0x00
011D           4902   __str_26:
011D 50617468  4903            db 'Path Received    '
     20526563
     65697665
     64202020
     20
012E 00        4904            db 0x00
012F           4905   __str_27:
012F 53657420  4906            db 'Set Password:   '
     50617373
     776F7264
     3A202020
013F 00        4907            db 0x00
0140           4908   __str_28:
0140 50617373  4909            db 'Pass: 0000      '
     3A203030
     30302020
     20202020
0150 00        4910            db 0x00
0151           4911   __str_29:
0151 50617373  4912            db 'Password Set!   '
     776F7264
     20536574
     21202020
0161 00        4913            db 0x00
0162           4914   __str_30:
0162 41444320  4915            db 'ADC OK-MOVE JOY '
     4F4B2D4D
     4F564520
     4A4F5920
0172 00        4916            db 0x00
0173           4917   __str_31:
0173 3E53544F  4918            db '>STOP          < '
     50202020
     20202020
     2020203C
     20
0184 00        4919            db 0x00
0185           4920   __str_32:
0185 4C4F434B  4921            db 'LOCKED          '
     45442020
     20202020
     20202020
0195 00        4922            db 0x00
0196           4923   __str_33:
0196 556E6C6F  4924            db 'Unlocked        '
     636B6564
     20202020
     20202020
01A6 00        4925            db 0x00
01A7           4926   __str_34:
01A7 52657475  4927            db 'Returning...    '
     726E696E
     672E2E2E
     20202020
01B7 00        4928            db 0x00
01B8           4929   __str_35:
01B8 53544F50  4930            db 'STOP            '
     20202020
     20202020
     20202020
01C8 00        4931            db 0x00
01C9           4932   __str_36:
01C9 57726F6E  4933            db 'Wrong Password  '
     67205061
     7373776F
     72642020
01D9 00        4934            db 0x00
01DA           4935   __str_37:
01DA 54727920  4936            db 'Try Again       '
     41676169
     6E202020
     20202020
01EA 00        4937            db 0x00
01EB           4938   __str_38:
01EB 4C6F636B  4939            db 'Locking...      '
     696E672E
     2E2E2020
     20202020
01FB 00        4940            db 0x00
01FC           4941   __str_39:
01FC 54696D65  4942            db 'Time: PAUSED    '
     3A205041
     55534544
     20202020
020C 00        4943            db 0x00
020D           4944   
002E           4945            CSEG
002E           4946   
002E           4947   end
